ARM GAS  C:\Users\igorn\AppData\Local\Temp\cchFVsBM.s 			page 1


   1              		.cpu cortex-m4
   2              		.arch armv7e-m
   3              		.fpu fpv4-sp-d16
   4              		.eabi_attribute 27, 1
   5              		.eabi_attribute 28, 1
   6              		.eabi_attribute 20, 1
   7              		.eabi_attribute 21, 1
   8              		.eabi_attribute 23, 3
   9              		.eabi_attribute 24, 1
  10              		.eabi_attribute 25, 1
  11              		.eabi_attribute 26, 1
  12              		.eabi_attribute 30, 1
  13              		.eabi_attribute 34, 1
  14              		.eabi_attribute 18, 4
  15              		.file	"NOS_Strip_UART.c"
  16              		.text
  17              	.Ltext0:
  18              		.cfi_sections	.debug_frame
  19              		.file 1 "Core/Src/NOS_Strip_UART.c"
  20              		.section	.text.NOS_Strip_UART_ParseCommand,"ax",%progbits
  21              		.align	1
  22              		.global	NOS_Strip_UART_ParseCommand
  23              		.syntax unified
  24              		.thumb
  25              		.thumb_func
  27              	NOS_Strip_UART_ParseCommand:
  28              	.LVL0:
  29              	.LFB132:
   1:Core/Src/NOS_Strip_UART.c **** #include "NOS_Strip_UART.h"
   2:Core/Src/NOS_Strip_UART.c **** #include "NOS_WS2812B_Strip.h"
   3:Core/Src/NOS_Strip_UART.c **** 
   4:Core/Src/NOS_Strip_UART.c **** bool NOS_Strip_UART_ParseCommand(WS2812B_Strip* strip,UART_Message* message)
   5:Core/Src/NOS_Strip_UART.c **** {
  30              		.loc 1 5 1 view -0
  31              		.cfi_startproc
  32              		@ args = 0, pretend = 0, frame = 48
  33              		@ frame_needed = 0, uses_anonymous_args = 0
  34              		.loc 1 5 1 is_stmt 0 view .LVU1
  35 0000 2DE9F043 		push	{r4, r5, r6, r7, r8, r9, lr}
  36              		.cfi_def_cfa_offset 28
  37              		.cfi_offset 4, -28
  38              		.cfi_offset 5, -24
  39              		.cfi_offset 6, -20
  40              		.cfi_offset 7, -16
  41              		.cfi_offset 8, -12
  42              		.cfi_offset 9, -8
  43              		.cfi_offset 14, -4
  44 0004 95B0     		sub	sp, sp, #84
  45              		.cfi_def_cfa_offset 112
  46 0006 0646     		mov	r6, r0
  47 0008 0D46     		mov	r5, r1
  48 000a 0024     		movs	r4, #0
   6:Core/Src/NOS_Strip_UART.c ****     int currPos = 0;
  49              		.loc 1 6 5 is_stmt 1 view .LVU2
  50              	.LVL1:
   7:Core/Src/NOS_Strip_UART.c ****     NOS_Short tempShort;
  51              		.loc 1 7 5 view .LVU3
ARM GAS  C:\Users\igorn\AppData\Local\Temp\cchFVsBM.s 			page 2


   8:Core/Src/NOS_Strip_UART.c ****     Effect_Struct tempEffect = {0};
  52              		.loc 1 8 5 view .LVU4
  53              		.loc 1 8 19 is_stmt 0 view .LVU5
  54 000c 2C22     		movs	r2, #44
  55 000e 2146     		mov	r1, r4
  56              	.LVL2:
  57              		.loc 1 8 19 view .LVU6
  58 0010 09A8     		add	r0, sp, #36
  59              	.LVL3:
  60              		.loc 1 8 19 view .LVU7
  61 0012 FFF7FEFF 		bl	memset
  62              	.LVL4:
   9:Core/Src/NOS_Strip_UART.c ****     PixelColor color = NOS_GetBaseColor(GREEN);
  63              		.loc 1 9 5 is_stmt 1 view .LVU8
  64              		.loc 1 9 24 is_stmt 0 view .LVU9
  65 0016 0420     		movs	r0, #4
  66 0018 FFF7FEFF 		bl	NOS_GetBaseColor
  67              	.LVL5:
  68 001c 8DF82000 		strb	r0, [sp, #32]
  69 0020 C0F30723 		ubfx	r3, r0, #8, #8
  70 0024 8DF82130 		strb	r3, [sp, #33]
  71 0028 C0F30743 		ubfx	r3, r0, #16, #8
  72 002c 8DF82230 		strb	r3, [sp, #34]
  10:Core/Src/NOS_Strip_UART.c ****     NOS_WS2812B_Strip_Effect_Init(&tempEffect,&color,0,0,0,0,0,0,0,0,0,0);
  73              		.loc 1 10 5 is_stmt 1 view .LVU10
  74 0030 0794     		str	r4, [sp, #28]
  75 0032 0694     		str	r4, [sp, #24]
  76 0034 0594     		str	r4, [sp, #20]
  77 0036 0494     		str	r4, [sp, #16]
  78 0038 0394     		str	r4, [sp, #12]
  79 003a 0294     		str	r4, [sp, #8]
  80 003c 0194     		str	r4, [sp, #4]
  81 003e 0094     		str	r4, [sp]
  82 0040 2346     		mov	r3, r4
  83 0042 2246     		mov	r2, r4
  84 0044 08A9     		add	r1, sp, #32
  85 0046 09A8     		add	r0, sp, #36
  86 0048 FFF7FEFF 		bl	NOS_WS2812B_Strip_Effect_Init
  87              	.LVL6:
  11:Core/Src/NOS_Strip_UART.c **** 
  12:Core/Src/NOS_Strip_UART.c ****     switch (message->command.data)
  88              		.loc 1 12 5 view .LVU11
  89              		.loc 1 12 29 is_stmt 0 view .LVU12
  90 004c EB68     		ldr	r3, [r5, #12]
  91              		.loc 1 12 5 view .LVU13
  92 004e 103B     		subs	r3, r3, #16
  93 0050 432B     		cmp	r3, #67
  94 0052 00F21982 		bhi	.L31
  95 0056 DFE813F0 		tbh	[pc, r3, lsl #1]
  96              	.L4:
  97 005a 4400     		.2byte	(.L12-.L4)/2
  98 005c 1702     		.2byte	(.L31-.L4)/2
  99 005e 1702     		.2byte	(.L31-.L4)/2
 100 0060 1702     		.2byte	(.L31-.L4)/2
 101 0062 1702     		.2byte	(.L31-.L4)/2
 102 0064 1702     		.2byte	(.L31-.L4)/2
 103 0066 1702     		.2byte	(.L31-.L4)/2
ARM GAS  C:\Users\igorn\AppData\Local\Temp\cchFVsBM.s 			page 3


 104 0068 1702     		.2byte	(.L31-.L4)/2
 105 006a 1702     		.2byte	(.L31-.L4)/2
 106 006c 1702     		.2byte	(.L31-.L4)/2
 107 006e 1702     		.2byte	(.L31-.L4)/2
 108 0070 1702     		.2byte	(.L31-.L4)/2
 109 0072 1702     		.2byte	(.L31-.L4)/2
 110 0074 1702     		.2byte	(.L31-.L4)/2
 111 0076 1702     		.2byte	(.L31-.L4)/2
 112 0078 1702     		.2byte	(.L31-.L4)/2
 113 007a 1702     		.2byte	(.L31-.L4)/2
 114 007c 1702     		.2byte	(.L31-.L4)/2
 115 007e 1702     		.2byte	(.L31-.L4)/2
 116 0080 1702     		.2byte	(.L31-.L4)/2
 117 0082 1702     		.2byte	(.L31-.L4)/2
 118 0084 1702     		.2byte	(.L31-.L4)/2
 119 0086 1702     		.2byte	(.L31-.L4)/2
 120 0088 1702     		.2byte	(.L31-.L4)/2
 121 008a 1702     		.2byte	(.L31-.L4)/2
 122 008c 1702     		.2byte	(.L31-.L4)/2
 123 008e 1702     		.2byte	(.L31-.L4)/2
 124 0090 1702     		.2byte	(.L31-.L4)/2
 125 0092 1702     		.2byte	(.L31-.L4)/2
 126 0094 1702     		.2byte	(.L31-.L4)/2
 127 0096 1702     		.2byte	(.L31-.L4)/2
 128 0098 1702     		.2byte	(.L31-.L4)/2
 129 009a A201     		.2byte	(.L11-.L4)/2
 130 009c B401     		.2byte	(.L10-.L4)/2
 131 009e D701     		.2byte	(.L9-.L4)/2
 132 00a0 1702     		.2byte	(.L31-.L4)/2
 133 00a2 1702     		.2byte	(.L31-.L4)/2
 134 00a4 EA01     		.2byte	(.L8-.L4)/2
 135 00a6 1702     		.2byte	(.L31-.L4)/2
 136 00a8 1702     		.2byte	(.L31-.L4)/2
 137 00aa 1702     		.2byte	(.L31-.L4)/2
 138 00ac 1702     		.2byte	(.L31-.L4)/2
 139 00ae 1702     		.2byte	(.L31-.L4)/2
 140 00b0 1702     		.2byte	(.L31-.L4)/2
 141 00b2 1702     		.2byte	(.L31-.L4)/2
 142 00b4 1702     		.2byte	(.L31-.L4)/2
 143 00b6 1702     		.2byte	(.L31-.L4)/2
 144 00b8 1702     		.2byte	(.L31-.L4)/2
 145 00ba 1702     		.2byte	(.L31-.L4)/2
 146 00bc 1702     		.2byte	(.L31-.L4)/2
 147 00be 1702     		.2byte	(.L31-.L4)/2
 148 00c0 1702     		.2byte	(.L31-.L4)/2
 149 00c2 1702     		.2byte	(.L31-.L4)/2
 150 00c4 1702     		.2byte	(.L31-.L4)/2
 151 00c6 1702     		.2byte	(.L31-.L4)/2
 152 00c8 1702     		.2byte	(.L31-.L4)/2
 153 00ca 1702     		.2byte	(.L31-.L4)/2
 154 00cc 1702     		.2byte	(.L31-.L4)/2
 155 00ce 1702     		.2byte	(.L31-.L4)/2
 156 00d0 1702     		.2byte	(.L31-.L4)/2
 157 00d2 1702     		.2byte	(.L31-.L4)/2
 158 00d4 1702     		.2byte	(.L31-.L4)/2
 159 00d6 1702     		.2byte	(.L31-.L4)/2
 160 00d8 1702     		.2byte	(.L31-.L4)/2
ARM GAS  C:\Users\igorn\AppData\Local\Temp\cchFVsBM.s 			page 4


 161 00da 5A00     		.2byte	(.L7-.L4)/2
 162 00dc B300     		.2byte	(.L6-.L4)/2
 163 00de 0C01     		.2byte	(.L5-.L4)/2
 164 00e0 6501     		.2byte	(.L3-.L4)/2
 165              		.p2align 1
 166              	.L12:
 167              	.LBB6:
  13:Core/Src/NOS_Strip_UART.c ****     {
  14:Core/Src/NOS_Strip_UART.c ****         case SET_STRIP_PIXEL_COUNT:
  15:Core/Src/NOS_Strip_UART.c **** 
  16:Core/Src/NOS_Strip_UART.c ****         tempShort.bytes[1] = message->data[currPos++];
 168              		.loc 1 16 9 is_stmt 1 view .LVU14
 169              	.LVL7:
 170              		.loc 1 16 43 is_stmt 0 view .LVU15
 171 00e2 2B7C     		ldrb	r3, [r5, #16]	@ zero_extendqisi2
 172              		.loc 1 16 28 view .LVU16
 173 00e4 4FF00001 		mov	r1, #0	@ movhi
 174              	.LVL8:
 175              		.loc 1 16 28 view .LVU17
 176 00e8 63F30F21 		bfi	r1, r3, #8, #8
 177              	.LVL9:
  17:Core/Src/NOS_Strip_UART.c ****         tempShort.bytes[0] = message->data[currPos++];
 178              		.loc 1 17 9 is_stmt 1 view .LVU18
 179              		.loc 1 17 43 is_stmt 0 view .LVU19
 180 00ec 6B7C     		ldrb	r3, [r5, #17]	@ zero_extendqisi2
 181              		.loc 1 17 28 view .LVU20
 182 00ee 63F30701 		bfi	r1, r3, #0, #8
  18:Core/Src/NOS_Strip_UART.c **** 
  19:Core/Src/NOS_Strip_UART.c **** 
  20:Core/Src/NOS_Strip_UART.c ****         if(tempShort.data > 0 && tempShort.data <= 512)
 183              		.loc 1 20 9 is_stmt 1 view .LVU21
 184              		.loc 1 20 21 is_stmt 0 view .LVU22
 185 00f2 8CB2     		uxth	r4, r1
 186              		.loc 1 20 31 view .LVU23
 187 00f4 631E     		subs	r3, r4, #1
 188 00f6 9BB2     		uxth	r3, r3
 189              		.loc 1 20 11 view .LVU24
 190 00f8 B3F5007F 		cmp	r3, #512
 191 00fc 01D3     		bcc	.L35
  21:Core/Src/NOS_Strip_UART.c ****         {
  22:Core/Src/NOS_Strip_UART.c ****             NOS_WS2812B_Strip_Clear(strip);
  23:Core/Src/NOS_Strip_UART.c ****             strip->pixelCount = tempShort.data;
  24:Core/Src/NOS_Strip_UART.c ****         }
  25:Core/Src/NOS_Strip_UART.c ****         
  26:Core/Src/NOS_Strip_UART.c ****         return true;
 192              		.loc 1 26 16 view .LVU25
 193 00fe 0120     		movs	r0, #1
 194 0100 C3E1     		b	.L2
 195              	.L35:
  22:Core/Src/NOS_Strip_UART.c ****             strip->pixelCount = tempShort.data;
 196              		.loc 1 22 13 is_stmt 1 view .LVU26
 197 0102 3046     		mov	r0, r6
 198 0104 FFF7FEFF 		bl	NOS_WS2812B_Strip_Clear
 199              	.LVL10:
  23:Core/Src/NOS_Strip_UART.c ****         }
 200              		.loc 1 23 13 view .LVU27
  23:Core/Src/NOS_Strip_UART.c ****         }
ARM GAS  C:\Users\igorn\AppData\Local\Temp\cchFVsBM.s 			page 5


 201              		.loc 1 23 31 is_stmt 0 view .LVU28
 202 0108 B460     		str	r4, [r6, #8]
 203              		.loc 1 26 16 view .LVU29
 204 010a 0120     		movs	r0, #1
 205 010c BDE1     		b	.L2
 206              	.LVL11:
 207              	.L7:
  27:Core/Src/NOS_Strip_UART.c ****         break;
 208              		.loc 1 27 9 is_stmt 1 view .LVU30
  28:Core/Src/NOS_Strip_UART.c **** 
  29:Core/Src/NOS_Strip_UART.c ****     case SET_EFFECT_BREATHE:
  30:Core/Src/NOS_Strip_UART.c **** 
  31:Core/Src/NOS_Strip_UART.c ****             if(message->data[currPos++] == EFFECT_BREATHE_ID)
 209              		.loc 1 31 13 view .LVU31
 210              		.loc 1 31 29 is_stmt 0 view .LVU32
 211 010e 2B7C     		ldrb	r3, [r5, #16]	@ zero_extendqisi2
 212              		.loc 1 31 15 view .LVU33
 213 0110 202B     		cmp	r3, #32
 214 0112 4ED0     		beq	.L36
 215              	.L13:
  32:Core/Src/NOS_Strip_UART.c ****             {
  33:Core/Src/NOS_Strip_UART.c ****                 tempEffect.effectId = EFFECT_BREATHE_ID;
  34:Core/Src/NOS_Strip_UART.c ****             }
  35:Core/Src/NOS_Strip_UART.c **** 
  36:Core/Src/NOS_Strip_UART.c ****             if(message->data[currPos++] == 0xFF)
 216              		.loc 1 36 13 is_stmt 1 view .LVU34
 217              	.LVL12:
 218              		.loc 1 36 29 is_stmt 0 view .LVU35
 219 0114 6B7C     		ldrb	r3, [r5, #17]	@ zero_extendqisi2
 220              		.loc 1 36 15 view .LVU36
 221 0116 FF2B     		cmp	r3, #255
 222 0118 4ED0     		beq	.L37
  37:Core/Src/NOS_Strip_UART.c ****             {
  38:Core/Src/NOS_Strip_UART.c ****                 tempEffect.enabled = true;
  39:Core/Src/NOS_Strip_UART.c ****             }
  40:Core/Src/NOS_Strip_UART.c ****             else
  41:Core/Src/NOS_Strip_UART.c ****             {
  42:Core/Src/NOS_Strip_UART.c ****                 tempEffect.enabled = false;
 223              		.loc 1 42 17 is_stmt 1 view .LVU37
 224              		.loc 1 42 36 is_stmt 0 view .LVU38
 225 011a 0023     		movs	r3, #0
 226 011c 8DF84D30 		strb	r3, [sp, #77]
 227              	.L15:
  43:Core/Src/NOS_Strip_UART.c ****             }
  44:Core/Src/NOS_Strip_UART.c **** 
  45:Core/Src/NOS_Strip_UART.c ****             tempShort.bytes[1] = message->data[currPos++];
 228              		.loc 1 45 13 is_stmt 1 view .LVU39
 229              	.LVL13:
 230              		.loc 1 45 47 is_stmt 0 view .LVU40
 231 0120 AB7C     		ldrb	r3, [r5, #18]	@ zero_extendqisi2
 232              		.loc 1 45 32 view .LVU41
 233 0122 4FF00001 		mov	r1, #0	@ movhi
 234              		.loc 1 45 32 view .LVU42
 235 0126 63F30F21 		bfi	r1, r3, #8, #8
 236              	.LVL14:
  46:Core/Src/NOS_Strip_UART.c ****             tempShort.bytes[0] = message->data[currPos++];
 237              		.loc 1 46 13 is_stmt 1 view .LVU43
ARM GAS  C:\Users\igorn\AppData\Local\Temp\cchFVsBM.s 			page 6


 238              		.loc 1 46 47 is_stmt 0 view .LVU44
 239 012a EB7C     		ldrb	r3, [r5, #19]	@ zero_extendqisi2
 240              		.loc 1 46 32 view .LVU45
 241 012c 63F30701 		bfi	r1, r3, #0, #8
  47:Core/Src/NOS_Strip_UART.c ****             uint16_t speed = tempShort.data;
 242              		.loc 1 47 13 is_stmt 1 view .LVU46
 243              		.loc 1 47 22 is_stmt 0 view .LVU47
 244 0130 8AB2     		uxth	r2, r1
 245              	.LVL15:
  48:Core/Src/NOS_Strip_UART.c **** 
  49:Core/Src/NOS_Strip_UART.c ****             tempShort.bytes[1] = message->data[currPos++];
 246              		.loc 1 49 13 is_stmt 1 view .LVU48
 247              		.loc 1 49 47 is_stmt 0 view .LVU49
 248 0132 2B7D     		ldrb	r3, [r5, #20]	@ zero_extendqisi2
 249              		.loc 1 49 32 view .LVU50
 250 0134 63F30F21 		bfi	r1, r3, #8, #8
 251              	.LVL16:
  50:Core/Src/NOS_Strip_UART.c ****             tempShort.bytes[0] = message->data[currPos++];
 252              		.loc 1 50 13 is_stmt 1 view .LVU51
 253              		.loc 1 50 47 is_stmt 0 view .LVU52
 254 0138 6B7D     		ldrb	r3, [r5, #21]	@ zero_extendqisi2
 255              		.loc 1 50 32 view .LVU53
 256 013a 63F30701 		bfi	r1, r3, #0, #8
  51:Core/Src/NOS_Strip_UART.c ****             uint16_t step = tempShort.data;
 257              		.loc 1 51 13 is_stmt 1 view .LVU54
 258              		.loc 1 51 22 is_stmt 0 view .LVU55
 259 013e 8BB2     		uxth	r3, r1
 260              	.LVL17:
  52:Core/Src/NOS_Strip_UART.c **** 
  53:Core/Src/NOS_Strip_UART.c ****             tempShort.bytes[1] = message->data[currPos++];
 261              		.loc 1 53 13 is_stmt 1 view .LVU56
 262              		.loc 1 53 47 is_stmt 0 view .LVU57
 263 0140 A87D     		ldrb	r0, [r5, #22]	@ zero_extendqisi2
 264              		.loc 1 53 32 view .LVU58
 265 0142 60F30F21 		bfi	r1, r0, #8, #8
 266              	.LVL18:
  54:Core/Src/NOS_Strip_UART.c ****             tempShort.bytes[0] = message->data[currPos++];
 267              		.loc 1 54 13 is_stmt 1 view .LVU59
 268              		.loc 1 54 47 is_stmt 0 view .LVU60
 269 0146 E87D     		ldrb	r0, [r5, #23]	@ zero_extendqisi2
 270              		.loc 1 54 32 view .LVU61
 271 0148 60F30701 		bfi	r1, r0, #0, #8
  55:Core/Src/NOS_Strip_UART.c ****             uint16_t min = tempShort.data;
 272              		.loc 1 55 13 is_stmt 1 view .LVU62
 273              		.loc 1 55 22 is_stmt 0 view .LVU63
 274 014c 8CB2     		uxth	r4, r1
 275              	.LVL19:
  56:Core/Src/NOS_Strip_UART.c **** 
  57:Core/Src/NOS_Strip_UART.c ****             tempShort.bytes[1] = message->data[currPos++];
 276              		.loc 1 57 13 is_stmt 1 view .LVU64
 277              		.loc 1 57 47 is_stmt 0 view .LVU65
 278 014e 287E     		ldrb	r0, [r5, #24]	@ zero_extendqisi2
 279              		.loc 1 57 32 view .LVU66
 280 0150 60F30F21 		bfi	r1, r0, #8, #8
 281              	.LVL20:
  58:Core/Src/NOS_Strip_UART.c ****             tempShort.bytes[0] = message->data[currPos++];
 282              		.loc 1 58 13 is_stmt 1 view .LVU67
ARM GAS  C:\Users\igorn\AppData\Local\Temp\cchFVsBM.s 			page 7


 283              		.loc 1 58 47 is_stmt 0 view .LVU68
 284 0154 687E     		ldrb	r0, [r5, #25]	@ zero_extendqisi2
 285              		.loc 1 58 32 view .LVU69
 286 0156 60F30701 		bfi	r1, r0, #0, #8
  59:Core/Src/NOS_Strip_UART.c ****             uint16_t max = tempShort.data;
 287              		.loc 1 59 13 is_stmt 1 view .LVU70
 288              		.loc 1 59 22 is_stmt 0 view .LVU71
 289 015a 89B2     		uxth	r1, r1
 290              	.LVL21:
  60:Core/Src/NOS_Strip_UART.c **** 
  61:Core/Src/NOS_Strip_UART.c ****             tempEffect.color.R = message->data[currPos++];
 291              		.loc 1 61 13 is_stmt 1 view .LVU72
 292              		.loc 1 61 47 is_stmt 0 view .LVU73
 293 015c A87E     		ldrb	r0, [r5, #26]	@ zero_extendqisi2
 294              		.loc 1 61 32 view .LVU74
 295 015e 8DF84A00 		strb	r0, [sp, #74]
  62:Core/Src/NOS_Strip_UART.c ****             tempEffect.color.G = message->data[currPos++];
 296              		.loc 1 62 13 is_stmt 1 view .LVU75
 297              	.LVL22:
 298              		.loc 1 62 47 is_stmt 0 view .LVU76
 299 0162 E87E     		ldrb	r0, [r5, #27]	@ zero_extendqisi2
 300              		.loc 1 62 32 view .LVU77
 301 0164 8DF84B00 		strb	r0, [sp, #75]
  63:Core/Src/NOS_Strip_UART.c ****             tempEffect.color.B = message->data[currPos++];
 302              		.loc 1 63 13 is_stmt 1 view .LVU78
 303              	.LVL23:
 304              		.loc 1 63 47 is_stmt 0 view .LVU79
 305 0168 287F     		ldrb	r0, [r5, #28]	@ zero_extendqisi2
 306              		.loc 1 63 32 view .LVU80
 307 016a 8DF84C00 		strb	r0, [sp, #76]
  64:Core/Src/NOS_Strip_UART.c **** 
  65:Core/Src/NOS_Strip_UART.c ****             NOS_WS2812B_Strip_Effect_Init(&tempEffect,&tempEffect.color,speed,step,min,max,0,0,0,0,
 308              		.loc 1 65 13 is_stmt 1 view .LVU81
 309 016e 09AF     		add	r7, sp, #36
 310 0170 9DF84D00 		ldrb	r0, [sp, #77]	@ zero_extendqisi2
 311 0174 0790     		str	r0, [sp, #28]
 312 0176 9DF84E00 		ldrb	r0, [sp, #78]	@ zero_extendqisi2
 313 017a 0690     		str	r0, [sp, #24]
 314 017c 0020     		movs	r0, #0
 315 017e 0590     		str	r0, [sp, #20]
 316 0180 0490     		str	r0, [sp, #16]
 317 0182 0390     		str	r0, [sp, #12]
 318 0184 0290     		str	r0, [sp, #8]
 319 0186 0191     		str	r1, [sp, #4]
 320 0188 0094     		str	r4, [sp]
 321 018a 0DF14A01 		add	r1, sp, #74
 322              	.LVL24:
 323              		.loc 1 65 13 is_stmt 0 view .LVU82
 324 018e 3846     		mov	r0, r7
 325 0190 FFF7FEFF 		bl	NOS_WS2812B_Strip_Effect_Init
 326              	.LVL25:
  66:Core/Src/NOS_Strip_UART.c ****             NOS_WS2812B_Strip_Effects_UpdateEffect(strip,tempEffect);
 327              		.loc 1 66 13 is_stmt 1 view .LVU83
 328 0194 6C46     		mov	r4, sp
 329              	.LVL26:
 330              		.loc 1 66 13 is_stmt 0 view .LVU84
 331 0196 0CAD     		add	r5, sp, #48
ARM GAS  C:\Users\igorn\AppData\Local\Temp\cchFVsBM.s 			page 8


 332              	.LVL27:
 333              		.loc 1 66 13 view .LVU85
 334 0198 0FCD     		ldmia	r5!, {r0, r1, r2, r3}
 335 019a 0FC4     		stmia	r4!, {r0, r1, r2, r3}
 336 019c 95E80F00 		ldm	r5, {r0, r1, r2, r3}
 337 01a0 84E80F00 		stm	r4, {r0, r1, r2, r3}
 338 01a4 97E80E00 		ldm	r7, {r1, r2, r3}
 339 01a8 3046     		mov	r0, r6
 340 01aa FFF7FEFF 		bl	NOS_WS2812B_Strip_Effects_UpdateEffect
 341              	.LVL28:
  67:Core/Src/NOS_Strip_UART.c **** 
  68:Core/Src/NOS_Strip_UART.c ****             return true;       
 342              		.loc 1 68 13 is_stmt 1 view .LVU86
 343              		.loc 1 68 20 is_stmt 0 view .LVU87
 344 01ae 0120     		movs	r0, #1
 345 01b0 6BE1     		b	.L2
 346              	.LVL29:
 347              	.L36:
  33:Core/Src/NOS_Strip_UART.c ****             }
 348              		.loc 1 33 17 is_stmt 1 view .LVU88
  33:Core/Src/NOS_Strip_UART.c ****             }
 349              		.loc 1 33 37 is_stmt 0 view .LVU89
 350 01b2 8DF84E30 		strb	r3, [sp, #78]
 351 01b6 ADE7     		b	.L13
 352              	.LVL30:
 353              	.L37:
  38:Core/Src/NOS_Strip_UART.c ****             }
 354              		.loc 1 38 17 is_stmt 1 view .LVU90
  38:Core/Src/NOS_Strip_UART.c ****             }
 355              		.loc 1 38 36 is_stmt 0 view .LVU91
 356 01b8 0123     		movs	r3, #1
 357 01ba 8DF84D30 		strb	r3, [sp, #77]
 358 01be AFE7     		b	.L15
 359              	.LVL31:
 360              	.L6:
  69:Core/Src/NOS_Strip_UART.c ****             break;
 361              		.loc 1 69 13 is_stmt 1 view .LVU92
  70:Core/Src/NOS_Strip_UART.c ****     
  71:Core/Src/NOS_Strip_UART.c ****         case SET_EFFECT_RAINBOW:
  72:Core/Src/NOS_Strip_UART.c **** 
  73:Core/Src/NOS_Strip_UART.c ****             if(message->data[currPos++] == EFFECT_RAINBOW_ID)
 362              		.loc 1 73 13 view .LVU93
 363              		.loc 1 73 29 is_stmt 0 view .LVU94
 364 01c0 2B7C     		ldrb	r3, [r5, #16]	@ zero_extendqisi2
 365              		.loc 1 73 15 view .LVU95
 366 01c2 212B     		cmp	r3, #33
 367 01c4 4ED0     		beq	.L38
 368              	.L16:
  74:Core/Src/NOS_Strip_UART.c ****             {
  75:Core/Src/NOS_Strip_UART.c ****                 tempEffect.effectId = EFFECT_RAINBOW_ID;
  76:Core/Src/NOS_Strip_UART.c ****             }
  77:Core/Src/NOS_Strip_UART.c **** 
  78:Core/Src/NOS_Strip_UART.c ****             if(message->data[currPos++] == 0xFF)
 369              		.loc 1 78 13 is_stmt 1 view .LVU96
 370              	.LVL32:
 371              		.loc 1 78 29 is_stmt 0 view .LVU97
 372 01c6 6B7C     		ldrb	r3, [r5, #17]	@ zero_extendqisi2
ARM GAS  C:\Users\igorn\AppData\Local\Temp\cchFVsBM.s 			page 9


 373              		.loc 1 78 15 view .LVU98
 374 01c8 FF2B     		cmp	r3, #255
 375 01ca 4ED0     		beq	.L39
  79:Core/Src/NOS_Strip_UART.c ****             {
  80:Core/Src/NOS_Strip_UART.c ****                 tempEffect.enabled = true;
  81:Core/Src/NOS_Strip_UART.c ****             }
  82:Core/Src/NOS_Strip_UART.c ****             else
  83:Core/Src/NOS_Strip_UART.c ****             {
  84:Core/Src/NOS_Strip_UART.c ****                 tempEffect.enabled = false;
 376              		.loc 1 84 17 is_stmt 1 view .LVU99
 377              		.loc 1 84 36 is_stmt 0 view .LVU100
 378 01cc 0023     		movs	r3, #0
 379 01ce 8DF84D30 		strb	r3, [sp, #77]
 380              	.L18:
  85:Core/Src/NOS_Strip_UART.c ****             }
  86:Core/Src/NOS_Strip_UART.c **** 
  87:Core/Src/NOS_Strip_UART.c ****             tempShort.bytes[1] = message->data[currPos++];
 381              		.loc 1 87 13 is_stmt 1 view .LVU101
 382              	.LVL33:
 383              		.loc 1 87 47 is_stmt 0 view .LVU102
 384 01d2 AB7C     		ldrb	r3, [r5, #18]	@ zero_extendqisi2
 385              		.loc 1 87 32 view .LVU103
 386 01d4 4FF00001 		mov	r1, #0	@ movhi
 387              		.loc 1 87 32 view .LVU104
 388 01d8 63F30F21 		bfi	r1, r3, #8, #8
 389              	.LVL34:
  88:Core/Src/NOS_Strip_UART.c ****             tempShort.bytes[0] = message->data[currPos++];
 390              		.loc 1 88 13 is_stmt 1 view .LVU105
 391              		.loc 1 88 47 is_stmt 0 view .LVU106
 392 01dc EB7C     		ldrb	r3, [r5, #19]	@ zero_extendqisi2
 393              		.loc 1 88 32 view .LVU107
 394 01de 63F30701 		bfi	r1, r3, #0, #8
  89:Core/Src/NOS_Strip_UART.c ****             speed = tempShort.data;
 395              		.loc 1 89 13 is_stmt 1 view .LVU108
 396              		.loc 1 89 19 is_stmt 0 view .LVU109
 397 01e2 8AB2     		uxth	r2, r1
 398              	.LVL35:
  90:Core/Src/NOS_Strip_UART.c **** 
  91:Core/Src/NOS_Strip_UART.c ****             tempShort.bytes[1] = message->data[currPos++];
 399              		.loc 1 91 13 is_stmt 1 view .LVU110
 400              		.loc 1 91 47 is_stmt 0 view .LVU111
 401 01e4 2B7D     		ldrb	r3, [r5, #20]	@ zero_extendqisi2
 402              		.loc 1 91 32 view .LVU112
 403 01e6 63F30F21 		bfi	r1, r3, #8, #8
 404              	.LVL36:
  92:Core/Src/NOS_Strip_UART.c ****             tempShort.bytes[0] = message->data[currPos++];
 405              		.loc 1 92 13 is_stmt 1 view .LVU113
 406              		.loc 1 92 47 is_stmt 0 view .LVU114
 407 01ea 6B7D     		ldrb	r3, [r5, #21]	@ zero_extendqisi2
 408              		.loc 1 92 32 view .LVU115
 409 01ec 63F30701 		bfi	r1, r3, #0, #8
  93:Core/Src/NOS_Strip_UART.c ****             step = tempShort.data;
 410              		.loc 1 93 13 is_stmt 1 view .LVU116
 411              		.loc 1 93 18 is_stmt 0 view .LVU117
 412 01f0 8BB2     		uxth	r3, r1
 413              	.LVL37:
  94:Core/Src/NOS_Strip_UART.c **** 
ARM GAS  C:\Users\igorn\AppData\Local\Temp\cchFVsBM.s 			page 10


  95:Core/Src/NOS_Strip_UART.c ****             tempShort.bytes[1] = message->data[currPos++];
 414              		.loc 1 95 13 is_stmt 1 view .LVU118
 415              		.loc 1 95 47 is_stmt 0 view .LVU119
 416 01f2 A87D     		ldrb	r0, [r5, #22]	@ zero_extendqisi2
 417              		.loc 1 95 32 view .LVU120
 418 01f4 60F30F21 		bfi	r1, r0, #8, #8
 419              	.LVL38:
  96:Core/Src/NOS_Strip_UART.c ****             tempShort.bytes[0] = message->data[currPos++];
 420              		.loc 1 96 13 is_stmt 1 view .LVU121
 421              		.loc 1 96 47 is_stmt 0 view .LVU122
 422 01f8 E87D     		ldrb	r0, [r5, #23]	@ zero_extendqisi2
 423              		.loc 1 96 32 view .LVU123
 424 01fa 60F30701 		bfi	r1, r0, #0, #8
  97:Core/Src/NOS_Strip_UART.c ****             min = tempShort.data;
 425              		.loc 1 97 13 is_stmt 1 view .LVU124
 426              		.loc 1 97 17 is_stmt 0 view .LVU125
 427 01fe 8CB2     		uxth	r4, r1
 428              	.LVL39:
  98:Core/Src/NOS_Strip_UART.c **** 
  99:Core/Src/NOS_Strip_UART.c ****             tempShort.bytes[1] = message->data[currPos++];
 429              		.loc 1 99 13 is_stmt 1 view .LVU126
 430              		.loc 1 99 47 is_stmt 0 view .LVU127
 431 0200 287E     		ldrb	r0, [r5, #24]	@ zero_extendqisi2
 432              		.loc 1 99 32 view .LVU128
 433 0202 60F30F21 		bfi	r1, r0, #8, #8
 434              	.LVL40:
 100:Core/Src/NOS_Strip_UART.c ****             tempShort.bytes[0] = message->data[currPos++];
 435              		.loc 1 100 13 is_stmt 1 view .LVU129
 436              		.loc 1 100 47 is_stmt 0 view .LVU130
 437 0206 687E     		ldrb	r0, [r5, #25]	@ zero_extendqisi2
 438              		.loc 1 100 32 view .LVU131
 439 0208 60F30701 		bfi	r1, r0, #0, #8
 101:Core/Src/NOS_Strip_UART.c ****             max = tempShort.data;
 440              		.loc 1 101 13 is_stmt 1 view .LVU132
 441              		.loc 1 101 17 is_stmt 0 view .LVU133
 442 020c 89B2     		uxth	r1, r1
 443              	.LVL41:
 102:Core/Src/NOS_Strip_UART.c **** 
 103:Core/Src/NOS_Strip_UART.c ****             tempEffect.color.R = message->data[currPos++];
 444              		.loc 1 103 13 is_stmt 1 view .LVU134
 445              		.loc 1 103 47 is_stmt 0 view .LVU135
 446 020e A87E     		ldrb	r0, [r5, #26]	@ zero_extendqisi2
 447              		.loc 1 103 32 view .LVU136
 448 0210 8DF84A00 		strb	r0, [sp, #74]
 104:Core/Src/NOS_Strip_UART.c ****             tempEffect.color.G = message->data[currPos++];
 449              		.loc 1 104 13 is_stmt 1 view .LVU137
 450              	.LVL42:
 451              		.loc 1 104 47 is_stmt 0 view .LVU138
 452 0214 E87E     		ldrb	r0, [r5, #27]	@ zero_extendqisi2
 453              		.loc 1 104 32 view .LVU139
 454 0216 8DF84B00 		strb	r0, [sp, #75]
 105:Core/Src/NOS_Strip_UART.c ****             tempEffect.color.B = message->data[currPos++];
 455              		.loc 1 105 13 is_stmt 1 view .LVU140
 456              	.LVL43:
 457              		.loc 1 105 47 is_stmt 0 view .LVU141
 458 021a 287F     		ldrb	r0, [r5, #28]	@ zero_extendqisi2
 459              		.loc 1 105 32 view .LVU142
ARM GAS  C:\Users\igorn\AppData\Local\Temp\cchFVsBM.s 			page 11


 460 021c 8DF84C00 		strb	r0, [sp, #76]
 106:Core/Src/NOS_Strip_UART.c **** 
 107:Core/Src/NOS_Strip_UART.c ****             NOS_WS2812B_Strip_Effect_Init(&tempEffect,&tempEffect.color,speed,step,min,max,0,0,0,0,
 461              		.loc 1 107 13 is_stmt 1 view .LVU143
 462 0220 09AF     		add	r7, sp, #36
 463 0222 9DF84D00 		ldrb	r0, [sp, #77]	@ zero_extendqisi2
 464 0226 0790     		str	r0, [sp, #28]
 465 0228 9DF84E00 		ldrb	r0, [sp, #78]	@ zero_extendqisi2
 466 022c 0690     		str	r0, [sp, #24]
 467 022e 0020     		movs	r0, #0
 468 0230 0590     		str	r0, [sp, #20]
 469 0232 0490     		str	r0, [sp, #16]
 470 0234 0390     		str	r0, [sp, #12]
 471 0236 0290     		str	r0, [sp, #8]
 472 0238 0191     		str	r1, [sp, #4]
 473 023a 0094     		str	r4, [sp]
 474 023c 0DF14A01 		add	r1, sp, #74
 475              	.LVL44:
 476              		.loc 1 107 13 is_stmt 0 view .LVU144
 477 0240 3846     		mov	r0, r7
 478 0242 FFF7FEFF 		bl	NOS_WS2812B_Strip_Effect_Init
 479              	.LVL45:
 108:Core/Src/NOS_Strip_UART.c ****             NOS_WS2812B_Strip_Effects_UpdateEffect(strip,tempEffect);
 480              		.loc 1 108 13 is_stmt 1 view .LVU145
 481 0246 6C46     		mov	r4, sp
 482              	.LVL46:
 483              		.loc 1 108 13 is_stmt 0 view .LVU146
 484 0248 0CAD     		add	r5, sp, #48
 485              	.LVL47:
 486              		.loc 1 108 13 view .LVU147
 487 024a 0FCD     		ldmia	r5!, {r0, r1, r2, r3}
 488 024c 0FC4     		stmia	r4!, {r0, r1, r2, r3}
 489 024e 95E80F00 		ldm	r5, {r0, r1, r2, r3}
 490 0252 84E80F00 		stm	r4, {r0, r1, r2, r3}
 491 0256 97E80E00 		ldm	r7, {r1, r2, r3}
 492 025a 3046     		mov	r0, r6
 493 025c FFF7FEFF 		bl	NOS_WS2812B_Strip_Effects_UpdateEffect
 494              	.LVL48:
 109:Core/Src/NOS_Strip_UART.c ****             return true;
 495              		.loc 1 109 13 is_stmt 1 view .LVU148
 496              		.loc 1 109 20 is_stmt 0 view .LVU149
 497 0260 0120     		movs	r0, #1
 498 0262 12E1     		b	.L2
 499              	.LVL49:
 500              	.L38:
  75:Core/Src/NOS_Strip_UART.c ****             }
 501              		.loc 1 75 17 is_stmt 1 view .LVU150
  75:Core/Src/NOS_Strip_UART.c ****             }
 502              		.loc 1 75 37 is_stmt 0 view .LVU151
 503 0264 8DF84E30 		strb	r3, [sp, #78]
 504 0268 ADE7     		b	.L16
 505              	.LVL50:
 506              	.L39:
  80:Core/Src/NOS_Strip_UART.c ****             }
 507              		.loc 1 80 17 is_stmt 1 view .LVU152
  80:Core/Src/NOS_Strip_UART.c ****             }
 508              		.loc 1 80 36 is_stmt 0 view .LVU153
ARM GAS  C:\Users\igorn\AppData\Local\Temp\cchFVsBM.s 			page 12


 509 026a 0123     		movs	r3, #1
 510 026c 8DF84D30 		strb	r3, [sp, #77]
 511 0270 AFE7     		b	.L18
 512              	.LVL51:
 513              	.L5:
 110:Core/Src/NOS_Strip_UART.c ****             break;
 514              		.loc 1 110 13 is_stmt 1 view .LVU154
 111:Core/Src/NOS_Strip_UART.c **** 
 112:Core/Src/NOS_Strip_UART.c ****         case SET_EFFECT_DOTS:
 113:Core/Src/NOS_Strip_UART.c **** 
 114:Core/Src/NOS_Strip_UART.c ****             if(message->data[currPos++] == EFFECT_DOTS_ID)
 515              		.loc 1 114 13 view .LVU155
 516              		.loc 1 114 29 is_stmt 0 view .LVU156
 517 0272 2B7C     		ldrb	r3, [r5, #16]	@ zero_extendqisi2
 518              		.loc 1 114 15 view .LVU157
 519 0274 222B     		cmp	r3, #34
 520 0276 4ED0     		beq	.L40
 521              	.L19:
 115:Core/Src/NOS_Strip_UART.c ****             {
 116:Core/Src/NOS_Strip_UART.c ****                 tempEffect.effectId = EFFECT_DOTS_ID;
 117:Core/Src/NOS_Strip_UART.c ****             }
 118:Core/Src/NOS_Strip_UART.c **** 
 119:Core/Src/NOS_Strip_UART.c ****             if(message->data[currPos++] == 0xFF)
 522              		.loc 1 119 13 is_stmt 1 view .LVU158
 523              	.LVL52:
 524              		.loc 1 119 29 is_stmt 0 view .LVU159
 525 0278 6B7C     		ldrb	r3, [r5, #17]	@ zero_extendqisi2
 526              		.loc 1 119 15 view .LVU160
 527 027a FF2B     		cmp	r3, #255
 528 027c 4ED0     		beq	.L41
 120:Core/Src/NOS_Strip_UART.c ****             {
 121:Core/Src/NOS_Strip_UART.c ****                 tempEffect.enabled = true;
 122:Core/Src/NOS_Strip_UART.c ****             }
 123:Core/Src/NOS_Strip_UART.c ****             else
 124:Core/Src/NOS_Strip_UART.c ****             {
 125:Core/Src/NOS_Strip_UART.c ****                 tempEffect.enabled = false;
 529              		.loc 1 125 17 is_stmt 1 view .LVU161
 530              		.loc 1 125 36 is_stmt 0 view .LVU162
 531 027e 0023     		movs	r3, #0
 532 0280 8DF84D30 		strb	r3, [sp, #77]
 533              	.L21:
 126:Core/Src/NOS_Strip_UART.c ****             }
 127:Core/Src/NOS_Strip_UART.c **** 
 128:Core/Src/NOS_Strip_UART.c ****             tempShort.bytes[1] = message->data[currPos++];
 534              		.loc 1 128 13 is_stmt 1 view .LVU163
 535              	.LVL53:
 536              		.loc 1 128 47 is_stmt 0 view .LVU164
 537 0284 AB7C     		ldrb	r3, [r5, #18]	@ zero_extendqisi2
 538              		.loc 1 128 32 view .LVU165
 539 0286 4FF00001 		mov	r1, #0	@ movhi
 540              		.loc 1 128 32 view .LVU166
 541 028a 63F30F21 		bfi	r1, r3, #8, #8
 542              	.LVL54:
 129:Core/Src/NOS_Strip_UART.c ****             tempShort.bytes[0] = message->data[currPos++];
 543              		.loc 1 129 13 is_stmt 1 view .LVU167
 544              		.loc 1 129 47 is_stmt 0 view .LVU168
 545 028e EB7C     		ldrb	r3, [r5, #19]	@ zero_extendqisi2
ARM GAS  C:\Users\igorn\AppData\Local\Temp\cchFVsBM.s 			page 13


 546              		.loc 1 129 32 view .LVU169
 547 0290 63F30701 		bfi	r1, r3, #0, #8
 130:Core/Src/NOS_Strip_UART.c ****             speed = tempShort.data;
 548              		.loc 1 130 13 is_stmt 1 view .LVU170
 549              		.loc 1 130 19 is_stmt 0 view .LVU171
 550 0294 8AB2     		uxth	r2, r1
 551              	.LVL55:
 131:Core/Src/NOS_Strip_UART.c **** 
 132:Core/Src/NOS_Strip_UART.c ****             tempShort.bytes[1] = message->data[currPos++];
 552              		.loc 1 132 13 is_stmt 1 view .LVU172
 553              		.loc 1 132 47 is_stmt 0 view .LVU173
 554 0296 2B7D     		ldrb	r3, [r5, #20]	@ zero_extendqisi2
 555              		.loc 1 132 32 view .LVU174
 556 0298 63F30F21 		bfi	r1, r3, #8, #8
 557              	.LVL56:
 133:Core/Src/NOS_Strip_UART.c ****             tempShort.bytes[0] = message->data[currPos++];
 558              		.loc 1 133 13 is_stmt 1 view .LVU175
 559              		.loc 1 133 47 is_stmt 0 view .LVU176
 560 029c 6B7D     		ldrb	r3, [r5, #21]	@ zero_extendqisi2
 561              		.loc 1 133 32 view .LVU177
 562 029e 63F30701 		bfi	r1, r3, #0, #8
 134:Core/Src/NOS_Strip_UART.c ****             step = tempShort.data;
 563              		.loc 1 134 13 is_stmt 1 view .LVU178
 564              		.loc 1 134 18 is_stmt 0 view .LVU179
 565 02a2 8BB2     		uxth	r3, r1
 566              	.LVL57:
 135:Core/Src/NOS_Strip_UART.c **** 
 136:Core/Src/NOS_Strip_UART.c ****             tempShort.bytes[1] = message->data[currPos++];
 567              		.loc 1 136 13 is_stmt 1 view .LVU180
 568              		.loc 1 136 47 is_stmt 0 view .LVU181
 569 02a4 A87D     		ldrb	r0, [r5, #22]	@ zero_extendqisi2
 570              		.loc 1 136 32 view .LVU182
 571 02a6 60F30F21 		bfi	r1, r0, #8, #8
 572              	.LVL58:
 137:Core/Src/NOS_Strip_UART.c ****             tempShort.bytes[0] = message->data[currPos++];
 573              		.loc 1 137 13 is_stmt 1 view .LVU183
 574              		.loc 1 137 47 is_stmt 0 view .LVU184
 575 02aa E87D     		ldrb	r0, [r5, #23]	@ zero_extendqisi2
 576              		.loc 1 137 32 view .LVU185
 577 02ac 60F30701 		bfi	r1, r0, #0, #8
 138:Core/Src/NOS_Strip_UART.c ****             min = tempShort.data;
 578              		.loc 1 138 13 is_stmt 1 view .LVU186
 579              		.loc 1 138 17 is_stmt 0 view .LVU187
 580 02b0 8CB2     		uxth	r4, r1
 581              	.LVL59:
 139:Core/Src/NOS_Strip_UART.c **** 
 140:Core/Src/NOS_Strip_UART.c ****             tempShort.bytes[1] = message->data[currPos++];
 582              		.loc 1 140 13 is_stmt 1 view .LVU188
 583              		.loc 1 140 47 is_stmt 0 view .LVU189
 584 02b2 287E     		ldrb	r0, [r5, #24]	@ zero_extendqisi2
 585              		.loc 1 140 32 view .LVU190
 586 02b4 60F30F21 		bfi	r1, r0, #8, #8
 587              	.LVL60:
 141:Core/Src/NOS_Strip_UART.c ****             tempShort.bytes[0] = message->data[currPos++];
 588              		.loc 1 141 13 is_stmt 1 view .LVU191
 589              		.loc 1 141 47 is_stmt 0 view .LVU192
 590 02b8 687E     		ldrb	r0, [r5, #25]	@ zero_extendqisi2
ARM GAS  C:\Users\igorn\AppData\Local\Temp\cchFVsBM.s 			page 14


 591              		.loc 1 141 32 view .LVU193
 592 02ba 60F30701 		bfi	r1, r0, #0, #8
 142:Core/Src/NOS_Strip_UART.c ****             max = tempShort.data;
 593              		.loc 1 142 13 is_stmt 1 view .LVU194
 594              		.loc 1 142 17 is_stmt 0 view .LVU195
 595 02be 89B2     		uxth	r1, r1
 596              	.LVL61:
 143:Core/Src/NOS_Strip_UART.c **** 
 144:Core/Src/NOS_Strip_UART.c ****             tempEffect.color.R = message->data[currPos++];
 597              		.loc 1 144 13 is_stmt 1 view .LVU196
 598              		.loc 1 144 47 is_stmt 0 view .LVU197
 599 02c0 A87E     		ldrb	r0, [r5, #26]	@ zero_extendqisi2
 600              		.loc 1 144 32 view .LVU198
 601 02c2 8DF84A00 		strb	r0, [sp, #74]
 145:Core/Src/NOS_Strip_UART.c ****             tempEffect.color.G = message->data[currPos++];
 602              		.loc 1 145 13 is_stmt 1 view .LVU199
 603              	.LVL62:
 604              		.loc 1 145 47 is_stmt 0 view .LVU200
 605 02c6 E87E     		ldrb	r0, [r5, #27]	@ zero_extendqisi2
 606              		.loc 1 145 32 view .LVU201
 607 02c8 8DF84B00 		strb	r0, [sp, #75]
 146:Core/Src/NOS_Strip_UART.c ****             tempEffect.color.B = message->data[currPos++];
 608              		.loc 1 146 13 is_stmt 1 view .LVU202
 609              	.LVL63:
 610              		.loc 1 146 47 is_stmt 0 view .LVU203
 611 02cc 287F     		ldrb	r0, [r5, #28]	@ zero_extendqisi2
 612              		.loc 1 146 32 view .LVU204
 613 02ce 8DF84C00 		strb	r0, [sp, #76]
 147:Core/Src/NOS_Strip_UART.c **** 
 148:Core/Src/NOS_Strip_UART.c ****             NOS_WS2812B_Strip_Effect_Init(&tempEffect,&tempEffect.color,speed,step,min,max,0,0,0,0,
 614              		.loc 1 148 13 is_stmt 1 view .LVU205
 615 02d2 09AF     		add	r7, sp, #36
 616 02d4 9DF84D00 		ldrb	r0, [sp, #77]	@ zero_extendqisi2
 617 02d8 0790     		str	r0, [sp, #28]
 618 02da 9DF84E00 		ldrb	r0, [sp, #78]	@ zero_extendqisi2
 619 02de 0690     		str	r0, [sp, #24]
 620 02e0 0020     		movs	r0, #0
 621 02e2 0590     		str	r0, [sp, #20]
 622 02e4 0490     		str	r0, [sp, #16]
 623 02e6 0390     		str	r0, [sp, #12]
 624 02e8 0290     		str	r0, [sp, #8]
 625 02ea 0191     		str	r1, [sp, #4]
 626 02ec 0094     		str	r4, [sp]
 627 02ee 0DF14A01 		add	r1, sp, #74
 628              	.LVL64:
 629              		.loc 1 148 13 is_stmt 0 view .LVU206
 630 02f2 3846     		mov	r0, r7
 631 02f4 FFF7FEFF 		bl	NOS_WS2812B_Strip_Effect_Init
 632              	.LVL65:
 149:Core/Src/NOS_Strip_UART.c ****             NOS_WS2812B_Strip_Effects_UpdateEffect(strip,tempEffect);
 633              		.loc 1 149 13 is_stmt 1 view .LVU207
 634 02f8 6C46     		mov	r4, sp
 635              	.LVL66:
 636              		.loc 1 149 13 is_stmt 0 view .LVU208
 637 02fa 0CAD     		add	r5, sp, #48
 638              	.LVL67:
 639              		.loc 1 149 13 view .LVU209
ARM GAS  C:\Users\igorn\AppData\Local\Temp\cchFVsBM.s 			page 15


 640 02fc 0FCD     		ldmia	r5!, {r0, r1, r2, r3}
 641 02fe 0FC4     		stmia	r4!, {r0, r1, r2, r3}
 642 0300 95E80F00 		ldm	r5, {r0, r1, r2, r3}
 643 0304 84E80F00 		stm	r4, {r0, r1, r2, r3}
 644 0308 97E80E00 		ldm	r7, {r1, r2, r3}
 645 030c 3046     		mov	r0, r6
 646 030e FFF7FEFF 		bl	NOS_WS2812B_Strip_Effects_UpdateEffect
 647              	.LVL68:
 150:Core/Src/NOS_Strip_UART.c **** 
 151:Core/Src/NOS_Strip_UART.c ****             return true;       
 648              		.loc 1 151 13 is_stmt 1 view .LVU210
 649              		.loc 1 151 20 is_stmt 0 view .LVU211
 650 0312 0120     		movs	r0, #1
 651 0314 B9E0     		b	.L2
 652              	.LVL69:
 653              	.L40:
 116:Core/Src/NOS_Strip_UART.c ****             }
 654              		.loc 1 116 17 is_stmt 1 view .LVU212
 116:Core/Src/NOS_Strip_UART.c ****             }
 655              		.loc 1 116 37 is_stmt 0 view .LVU213
 656 0316 8DF84E30 		strb	r3, [sp, #78]
 657 031a ADE7     		b	.L19
 658              	.LVL70:
 659              	.L41:
 121:Core/Src/NOS_Strip_UART.c ****             }
 660              		.loc 1 121 17 is_stmt 1 view .LVU214
 121:Core/Src/NOS_Strip_UART.c ****             }
 661              		.loc 1 121 36 is_stmt 0 view .LVU215
 662 031c 0123     		movs	r3, #1
 663 031e 8DF84D30 		strb	r3, [sp, #77]
 664 0322 AFE7     		b	.L21
 665              	.LVL71:
 666              	.L3:
 152:Core/Src/NOS_Strip_UART.c ****             break;
 667              		.loc 1 152 13 is_stmt 1 view .LVU216
 153:Core/Src/NOS_Strip_UART.c **** 
 154:Core/Src/NOS_Strip_UART.c ****         case SET_EFFECT_WALKING_PIXELS:
 155:Core/Src/NOS_Strip_UART.c ****             
 156:Core/Src/NOS_Strip_UART.c ****             if(message->data[currPos++] == EFFECT_DOTS_ID)
 668              		.loc 1 156 13 view .LVU217
 669              		.loc 1 156 29 is_stmt 0 view .LVU218
 670 0324 2B7C     		ldrb	r3, [r5, #16]	@ zero_extendqisi2
 671              		.loc 1 156 15 view .LVU219
 672 0326 222B     		cmp	r3, #34
 673 0328 32D0     		beq	.L42
 674              	.L22:
 157:Core/Src/NOS_Strip_UART.c ****             {
 158:Core/Src/NOS_Strip_UART.c ****                 tempEffect.effectId = EFFECT_DOTS_ID;
 159:Core/Src/NOS_Strip_UART.c ****             }
 160:Core/Src/NOS_Strip_UART.c **** 
 161:Core/Src/NOS_Strip_UART.c ****             if(message->data[currPos++] == 0xFF)
 675              		.loc 1 161 13 is_stmt 1 view .LVU220
 676              	.LVL72:
 677              		.loc 1 161 29 is_stmt 0 view .LVU221
 678 032a 6B7C     		ldrb	r3, [r5, #17]	@ zero_extendqisi2
 679              		.loc 1 161 15 view .LVU222
 680 032c FF2B     		cmp	r3, #255
ARM GAS  C:\Users\igorn\AppData\Local\Temp\cchFVsBM.s 			page 16


 681 032e 32D0     		beq	.L43
 162:Core/Src/NOS_Strip_UART.c ****             {
 163:Core/Src/NOS_Strip_UART.c ****                 tempEffect.enabled = true;
 164:Core/Src/NOS_Strip_UART.c ****             }
 165:Core/Src/NOS_Strip_UART.c ****             else
 166:Core/Src/NOS_Strip_UART.c ****             {
 167:Core/Src/NOS_Strip_UART.c ****                 tempEffect.enabled = false;
 682              		.loc 1 167 17 is_stmt 1 view .LVU223
 683              		.loc 1 167 36 is_stmt 0 view .LVU224
 684 0330 0023     		movs	r3, #0
 685 0332 8DF84D30 		strb	r3, [sp, #77]
 686              	.L24:
 168:Core/Src/NOS_Strip_UART.c ****             }
 169:Core/Src/NOS_Strip_UART.c **** 
 170:Core/Src/NOS_Strip_UART.c ****             tempEffect.color.R = message->data[currPos++];
 687              		.loc 1 170 13 is_stmt 1 view .LVU225
 688              	.LVL73:
 689              		.loc 1 170 47 is_stmt 0 view .LVU226
 690 0336 AB7C     		ldrb	r3, [r5, #18]	@ zero_extendqisi2
 691              		.loc 1 170 32 view .LVU227
 692 0338 8DF84A30 		strb	r3, [sp, #74]
 171:Core/Src/NOS_Strip_UART.c ****             tempEffect.color.G = message->data[currPos++];
 693              		.loc 1 171 13 is_stmt 1 view .LVU228
 694              	.LVL74:
 695              		.loc 1 171 47 is_stmt 0 view .LVU229
 696 033c EB7C     		ldrb	r3, [r5, #19]	@ zero_extendqisi2
 697              		.loc 1 171 32 view .LVU230
 698 033e 8DF84B30 		strb	r3, [sp, #75]
 172:Core/Src/NOS_Strip_UART.c ****             tempEffect.color.B = message->data[currPos++];
 699              		.loc 1 172 13 is_stmt 1 view .LVU231
 700              	.LVL75:
 701              		.loc 1 172 47 is_stmt 0 view .LVU232
 702 0342 2B7D     		ldrb	r3, [r5, #20]	@ zero_extendqisi2
 703              		.loc 1 172 32 view .LVU233
 704 0344 8DF84C30 		strb	r3, [sp, #76]
 173:Core/Src/NOS_Strip_UART.c **** 
 174:Core/Src/NOS_Strip_UART.c ****             NOS_WS2812B_Strip_Effect_Init(&tempEffect,&tempEffect.color,speed,step,min,max,0,0,0,0,
 705              		.loc 1 174 13 is_stmt 1 view .LVU234
 706 0348 09AF     		add	r7, sp, #36
 707 034a 9DF84D30 		ldrb	r3, [sp, #77]	@ zero_extendqisi2
 708 034e 0793     		str	r3, [sp, #28]
 709 0350 9DF84E30 		ldrb	r3, [sp, #78]	@ zero_extendqisi2
 710 0354 0693     		str	r3, [sp, #24]
 711 0356 0023     		movs	r3, #0
 712 0358 0593     		str	r3, [sp, #20]
 713 035a 0493     		str	r3, [sp, #16]
 714 035c 0393     		str	r3, [sp, #12]
 715 035e 0293     		str	r3, [sp, #8]
 716 0360 0194     		str	r4, [sp, #4]
 717 0362 0094     		str	r4, [sp]
 718 0364 2346     		mov	r3, r4
 719 0366 2246     		mov	r2, r4
 720 0368 0DF14A01 		add	r1, sp, #74
 721 036c 3846     		mov	r0, r7
 722 036e FFF7FEFF 		bl	NOS_WS2812B_Strip_Effect_Init
 723              	.LVL76:
 175:Core/Src/NOS_Strip_UART.c ****             NOS_WS2812B_Strip_Effects_UpdateEffect(strip,tempEffect);
ARM GAS  C:\Users\igorn\AppData\Local\Temp\cchFVsBM.s 			page 17


 724              		.loc 1 175 13 view .LVU235
 725 0372 6C46     		mov	r4, sp
 726 0374 0CAD     		add	r5, sp, #48
 727              	.LVL77:
 728              		.loc 1 175 13 is_stmt 0 view .LVU236
 729 0376 0FCD     		ldmia	r5!, {r0, r1, r2, r3}
 730 0378 0FC4     		stmia	r4!, {r0, r1, r2, r3}
 731 037a 95E80F00 		ldm	r5, {r0, r1, r2, r3}
 732 037e 84E80F00 		stm	r4, {r0, r1, r2, r3}
 733 0382 97E80E00 		ldm	r7, {r1, r2, r3}
 734 0386 3046     		mov	r0, r6
 735 0388 FFF7FEFF 		bl	NOS_WS2812B_Strip_Effects_UpdateEffect
 736              	.LVL78:
 176:Core/Src/NOS_Strip_UART.c **** 
 177:Core/Src/NOS_Strip_UART.c **** 
 178:Core/Src/NOS_Strip_UART.c ****             return true;
 737              		.loc 1 178 13 is_stmt 1 view .LVU237
 738              		.loc 1 178 20 is_stmt 0 view .LVU238
 739 038c 0120     		movs	r0, #1
 740 038e 7CE0     		b	.L2
 741              	.LVL79:
 742              	.L42:
 158:Core/Src/NOS_Strip_UART.c ****             }
 743              		.loc 1 158 17 is_stmt 1 view .LVU239
 158:Core/Src/NOS_Strip_UART.c ****             }
 744              		.loc 1 158 37 is_stmt 0 view .LVU240
 745 0390 8DF84E30 		strb	r3, [sp, #78]
 746 0394 C9E7     		b	.L22
 747              	.LVL80:
 748              	.L43:
 163:Core/Src/NOS_Strip_UART.c ****             }
 749              		.loc 1 163 17 is_stmt 1 view .LVU241
 163:Core/Src/NOS_Strip_UART.c ****             }
 750              		.loc 1 163 36 is_stmt 0 view .LVU242
 751 0396 0123     		movs	r3, #1
 752 0398 8DF84D30 		strb	r3, [sp, #77]
 753 039c CBE7     		b	.L24
 754              	.LVL81:
 755              	.L11:
 179:Core/Src/NOS_Strip_UART.c ****             break;
 756              		.loc 1 179 13 is_stmt 1 view .LVU243
 180:Core/Src/NOS_Strip_UART.c ****             
 181:Core/Src/NOS_Strip_UART.c ****         case SET_ONE_PIXEL_COLOR_COMMAND:
 182:Core/Src/NOS_Strip_UART.c **** 
 183:Core/Src/NOS_Strip_UART.c ****             //pixelPos 
 184:Core/Src/NOS_Strip_UART.c ****             tempShort.bytes[1] = message->data[currPos++];
 757              		.loc 1 184 13 view .LVU244
 758              		.loc 1 184 47 is_stmt 0 view .LVU245
 759 039e 2B7C     		ldrb	r3, [r5, #16]	@ zero_extendqisi2
 760              		.loc 1 184 32 view .LVU246
 761 03a0 4FF00001 		mov	r1, #0	@ movhi
 762              		.loc 1 184 32 view .LVU247
 763 03a4 63F30F21 		bfi	r1, r3, #8, #8
 764              	.LVL82:
 185:Core/Src/NOS_Strip_UART.c ****             tempShort.bytes[0] = message->data[currPos++];
 765              		.loc 1 185 13 is_stmt 1 view .LVU248
 766              		.loc 1 185 47 is_stmt 0 view .LVU249
ARM GAS  C:\Users\igorn\AppData\Local\Temp\cchFVsBM.s 			page 18


 767 03a8 6B7C     		ldrb	r3, [r5, #17]	@ zero_extendqisi2
 768              		.loc 1 185 32 view .LVU250
 769 03aa 63F30701 		bfi	r1, r3, #0, #8
 186:Core/Src/NOS_Strip_UART.c ****             int tempInt1 = tempShort.data;
 770              		.loc 1 186 13 is_stmt 1 view .LVU251
 771              	.LVL83:
 187:Core/Src/NOS_Strip_UART.c **** 
 188:Core/Src/NOS_Strip_UART.c ****             //color
 189:Core/Src/NOS_Strip_UART.c ****             uint8_t r = message->data[currPos++];
 772              		.loc 1 189 13 view .LVU252
 190:Core/Src/NOS_Strip_UART.c ****             uint8_t g = message->data[currPos++];
 773              		.loc 1 190 13 view .LVU253
 191:Core/Src/NOS_Strip_UART.c ****             uint8_t b = message->data[currPos++];
 774              		.loc 1 191 13 view .LVU254
 775              		.loc 1 191 21 is_stmt 0 view .LVU255
 776 03ae 2B7D     		ldrb	r3, [r5, #20]	@ zero_extendqisi2
 777              	.LVL84:
 192:Core/Src/NOS_Strip_UART.c **** 
 193:Core/Src/NOS_Strip_UART.c ****             NOS_WS2812B_Strip_SetPixel(strip,tempInt1,r,g,b);
 778              		.loc 1 193 13 is_stmt 1 view .LVU256
 779 03b0 0093     		str	r3, [sp]
 780              	.LVL85:
 781              		.loc 1 193 13 is_stmt 0 view .LVU257
 782 03b2 EB7C     		ldrb	r3, [r5, #19]	@ zero_extendqisi2
 783              	.LVL86:
 784              		.loc 1 193 13 view .LVU258
 785 03b4 AA7C     		ldrb	r2, [r5, #18]	@ zero_extendqisi2
 786 03b6 89B2     		uxth	r1, r1
 787              	.LVL87:
 788              		.loc 1 193 13 view .LVU259
 789 03b8 3046     		mov	r0, r6
 790 03ba FFF7FEFF 		bl	NOS_WS2812B_Strip_SetPixel
 791              	.LVL88:
 194:Core/Src/NOS_Strip_UART.c ****             return true;
 792              		.loc 1 194 13 is_stmt 1 view .LVU260
 793              		.loc 1 194 20 is_stmt 0 view .LVU261
 794 03be 0120     		movs	r0, #1
 795 03c0 63E0     		b	.L2
 796              	.LVL89:
 797              	.L10:
 195:Core/Src/NOS_Strip_UART.c ****             break;
 798              		.loc 1 195 13 is_stmt 1 view .LVU262
 196:Core/Src/NOS_Strip_UART.c **** 
 197:Core/Src/NOS_Strip_UART.c ****         case SET_ROW_PIXEL_COLOR_COMMAND:
 198:Core/Src/NOS_Strip_UART.c **** 
 199:Core/Src/NOS_Strip_UART.c ****             //pixelPos
 200:Core/Src/NOS_Strip_UART.c ****             tempShort.bytes[1] = message->data[currPos++];
 799              		.loc 1 200 13 view .LVU263
 800              		.loc 1 200 47 is_stmt 0 view .LVU264
 801 03c2 2B7C     		ldrb	r3, [r5, #16]	@ zero_extendqisi2
 802              		.loc 1 200 32 view .LVU265
 803 03c4 4FF00001 		mov	r1, #0	@ movhi
 804              		.loc 1 200 32 view .LVU266
 805 03c8 63F30F21 		bfi	r1, r3, #8, #8
 806              	.LVL90:
 201:Core/Src/NOS_Strip_UART.c ****             tempShort.bytes[0] = message->data[currPos++];
 807              		.loc 1 201 13 is_stmt 1 view .LVU267
ARM GAS  C:\Users\igorn\AppData\Local\Temp\cchFVsBM.s 			page 19


 808              		.loc 1 201 47 is_stmt 0 view .LVU268
 809 03cc 6B7C     		ldrb	r3, [r5, #17]	@ zero_extendqisi2
 810              		.loc 1 201 32 view .LVU269
 811 03ce 63F30701 		bfi	r1, r3, #0, #8
 202:Core/Src/NOS_Strip_UART.c ****             tempInt1 = tempShort.data;
 812              		.loc 1 202 13 is_stmt 1 view .LVU270
 813              		.loc 1 202 33 is_stmt 0 view .LVU271
 814 03d2 1FFA81F9 		uxth	r9, r1
 815              	.LVL91:
 203:Core/Src/NOS_Strip_UART.c **** 
 204:Core/Src/NOS_Strip_UART.c ****             //pixelCount
 205:Core/Src/NOS_Strip_UART.c ****             tempShort.bytes[1] = message->data[currPos++];
 816              		.loc 1 205 13 is_stmt 1 view .LVU272
 817              		.loc 1 205 47 is_stmt 0 view .LVU273
 818 03d6 AB7C     		ldrb	r3, [r5, #18]	@ zero_extendqisi2
 819              		.loc 1 205 32 view .LVU274
 820 03d8 63F30F21 		bfi	r1, r3, #8, #8
 206:Core/Src/NOS_Strip_UART.c ****             tempShort.bytes[0] = message->data[currPos++];
 821              		.loc 1 206 13 is_stmt 1 view .LVU275
 822              	.LVL92:
 823              		.loc 1 206 47 is_stmt 0 view .LVU276
 824 03dc EB7C     		ldrb	r3, [r5, #19]	@ zero_extendqisi2
 825              		.loc 1 206 32 view .LVU277
 826 03de 63F30701 		bfi	r1, r3, #0, #8
 207:Core/Src/NOS_Strip_UART.c ****             int tempInt2 = tempShort.data;
 827              		.loc 1 207 13 is_stmt 1 view .LVU278
 828              		.loc 1 207 37 is_stmt 0 view .LVU279
 829 03e2 8CB2     		uxth	r4, r1
 830              	.LVL93:
 208:Core/Src/NOS_Strip_UART.c **** 
 209:Core/Src/NOS_Strip_UART.c ****             //color
 210:Core/Src/NOS_Strip_UART.c ****             r = message->data[currPos++];
 831              		.loc 1 210 13 is_stmt 1 view .LVU280
 832              		.loc 1 210 15 is_stmt 0 view .LVU281
 833 03e4 95F81480 		ldrb	r8, [r5, #20]	@ zero_extendqisi2
 834              	.LVL94:
 211:Core/Src/NOS_Strip_UART.c ****             g = message->data[currPos++];
 835              		.loc 1 211 13 is_stmt 1 view .LVU282
 836              		.loc 1 211 15 is_stmt 0 view .LVU283
 837 03e8 6F7D     		ldrb	r7, [r5, #21]	@ zero_extendqisi2
 838              	.LVL95:
 212:Core/Src/NOS_Strip_UART.c ****             b = message->data[currPos++];
 839              		.loc 1 212 13 is_stmt 1 view .LVU284
 840              		.loc 1 212 15 is_stmt 0 view .LVU285
 841 03ea AD7D     		ldrb	r5, [r5, #22]	@ zero_extendqisi2
 842              	.LVL96:
 213:Core/Src/NOS_Strip_UART.c **** 
 214:Core/Src/NOS_Strip_UART.c ****             //fill in row
 215:Core/Src/NOS_Strip_UART.c ****             for(int i = tempInt1; i < tempInt2; i++)
 843              		.loc 1 215 13 is_stmt 1 view .LVU286
 844              	.LBB7:
 845              		.loc 1 215 17 view .LVU287
 846              	.L25:
 847              		.loc 1 215 37 discriminator 1 view .LVU288
 848 03ec A145     		cmp	r9, r4
 849 03ee 09DA     		bge	.L44
 216:Core/Src/NOS_Strip_UART.c ****             {
ARM GAS  C:\Users\igorn\AppData\Local\Temp\cchFVsBM.s 			page 20


 217:Core/Src/NOS_Strip_UART.c ****                     NOS_WS2812B_Strip_SetPixel(strip,i,r,g,b);
 850              		.loc 1 217 21 discriminator 3 view .LVU289
 851 03f0 0095     		str	r5, [sp]
 852 03f2 3B46     		mov	r3, r7
 853 03f4 4246     		mov	r2, r8
 854 03f6 4946     		mov	r1, r9
 855              	.LVL97:
 856              		.loc 1 217 21 is_stmt 0 discriminator 3 view .LVU290
 857 03f8 3046     		mov	r0, r6
 858 03fa FFF7FEFF 		bl	NOS_WS2812B_Strip_SetPixel
 859              	.LVL98:
 215:Core/Src/NOS_Strip_UART.c ****             {
 860              		.loc 1 215 50 is_stmt 1 discriminator 3 view .LVU291
 861 03fe 09F10109 		add	r9, r9, #1
 862              	.LVL99:
 215:Core/Src/NOS_Strip_UART.c ****             {
 863              		.loc 1 215 50 is_stmt 0 discriminator 3 view .LVU292
 864 0402 F3E7     		b	.L25
 865              	.LVL100:
 866              	.L44:
 215:Core/Src/NOS_Strip_UART.c ****             {
 867              		.loc 1 215 50 discriminator 3 view .LVU293
 868              	.LBE7:
 218:Core/Src/NOS_Strip_UART.c ****             }
 219:Core/Src/NOS_Strip_UART.c **** 
 220:Core/Src/NOS_Strip_UART.c ****             return true;
 869              		.loc 1 220 20 view .LVU294
 870 0404 0120     		movs	r0, #1
 871 0406 40E0     		b	.L2
 872              	.LVL101:
 873              	.L9:
 221:Core/Src/NOS_Strip_UART.c ****             break;
 874              		.loc 1 221 13 is_stmt 1 view .LVU295
 222:Core/Src/NOS_Strip_UART.c **** 
 223:Core/Src/NOS_Strip_UART.c ****         case SET_ALL_PIXEL_ONE_COLOR_COMMAND:
 224:Core/Src/NOS_Strip_UART.c **** 
 225:Core/Src/NOS_Strip_UART.c ****             //color
 226:Core/Src/NOS_Strip_UART.c ****             r = message->data[currPos++];
 875              		.loc 1 226 13 view .LVU296
 876              		.loc 1 226 15 is_stmt 0 view .LVU297
 877 0408 95F81080 		ldrb	r8, [r5, #16]	@ zero_extendqisi2
 878              	.LVL102:
 227:Core/Src/NOS_Strip_UART.c ****             g = message->data[currPos++];
 879              		.loc 1 227 13 is_stmt 1 view .LVU298
 880              		.loc 1 227 15 is_stmt 0 view .LVU299
 881 040c 6F7C     		ldrb	r7, [r5, #17]	@ zero_extendqisi2
 882              	.LVL103:
 228:Core/Src/NOS_Strip_UART.c ****             b = message->data[currPos++];
 883              		.loc 1 228 13 is_stmt 1 view .LVU300
 884              		.loc 1 228 15 is_stmt 0 view .LVU301
 885 040e AD7C     		ldrb	r5, [r5, #18]	@ zero_extendqisi2
 886              	.LVL104:
 229:Core/Src/NOS_Strip_UART.c **** 
 230:Core/Src/NOS_Strip_UART.c ****             //fill all pixels
 231:Core/Src/NOS_Strip_UART.c ****             for(int i = 0; i < strip->pixelCount; i++)
 887              		.loc 1 231 13 is_stmt 1 view .LVU302
 888              	.LBB8:
ARM GAS  C:\Users\igorn\AppData\Local\Temp\cchFVsBM.s 			page 21


 889              		.loc 1 231 17 view .LVU303
 890              		.loc 1 231 21 is_stmt 0 view .LVU304
 891 0410 0024     		movs	r4, #0
 892              	.LVL105:
 893              	.L27:
 894              		.loc 1 231 30 is_stmt 1 discriminator 1 view .LVU305
 895              		.loc 1 231 37 is_stmt 0 discriminator 1 view .LVU306
 896 0412 B368     		ldr	r3, [r6, #8]
 897              		.loc 1 231 30 discriminator 1 view .LVU307
 898 0414 A342     		cmp	r3, r4
 899 0416 08DD     		ble	.L45
 232:Core/Src/NOS_Strip_UART.c ****             {
 233:Core/Src/NOS_Strip_UART.c ****                 NOS_WS2812B_Strip_SetPixel(strip,i,r,g,b);
 900              		.loc 1 233 17 is_stmt 1 discriminator 3 view .LVU308
 901 0418 0095     		str	r5, [sp]
 902 041a 3B46     		mov	r3, r7
 903 041c 4246     		mov	r2, r8
 904 041e 2146     		mov	r1, r4
 905 0420 3046     		mov	r0, r6
 906 0422 FFF7FEFF 		bl	NOS_WS2812B_Strip_SetPixel
 907              	.LVL106:
 231:Core/Src/NOS_Strip_UART.c ****             {
 908              		.loc 1 231 52 discriminator 3 view .LVU309
 909 0426 0134     		adds	r4, r4, #1
 910              	.LVL107:
 231:Core/Src/NOS_Strip_UART.c ****             {
 911              		.loc 1 231 52 is_stmt 0 discriminator 3 view .LVU310
 912 0428 F3E7     		b	.L27
 913              	.L45:
 231:Core/Src/NOS_Strip_UART.c ****             {
 914              		.loc 1 231 52 discriminator 3 view .LVU311
 915              	.LBE8:
 234:Core/Src/NOS_Strip_UART.c ****             }
 235:Core/Src/NOS_Strip_UART.c ****             return true;
 916              		.loc 1 235 20 view .LVU312
 917 042a 0120     		movs	r0, #1
 918 042c 2DE0     		b	.L2
 919              	.LVL108:
 920              	.L8:
 236:Core/Src/NOS_Strip_UART.c ****             break;
 921              		.loc 1 236 13 is_stmt 1 view .LVU313
 237:Core/Src/NOS_Strip_UART.c **** 
 238:Core/Src/NOS_Strip_UART.c ****         case SET_ALL_PIXEL_COMMAND:
 239:Core/Src/NOS_Strip_UART.c **** 
 240:Core/Src/NOS_Strip_UART.c ****                 strip->bright = 100;
 922              		.loc 1 240 17 view .LVU314
 923              		.loc 1 240 31 is_stmt 0 view .LVU315
 924 042e 6423     		movs	r3, #100
 925 0430 F360     		str	r3, [r6, #12]
 241:Core/Src/NOS_Strip_UART.c ****                 strip->effects[0].enabled = false;
 926              		.loc 1 241 17 is_stmt 1 view .LVU316
 927              		.loc 1 241 43 is_stmt 0 view .LVU317
 928 0432 0023     		movs	r3, #0
 929 0434 86F83930 		strb	r3, [r6, #57]
 242:Core/Src/NOS_Strip_UART.c ****                 strip->effects[1].enabled = false;
 930              		.loc 1 242 17 is_stmt 1 view .LVU318
 931              		.loc 1 242 43 is_stmt 0 view .LVU319
ARM GAS  C:\Users\igorn\AppData\Local\Temp\cchFVsBM.s 			page 22


 932 0438 86F86530 		strb	r3, [r6, #101]
 243:Core/Src/NOS_Strip_UART.c ****                 //Pixel count
 244:Core/Src/NOS_Strip_UART.c ****                 tempShort.bytes[1] = message->data[currPos++];
 933              		.loc 1 244 17 is_stmt 1 view .LVU320
 934              	.LVL109:
 935              		.loc 1 244 51 is_stmt 0 view .LVU321
 936 043c 2B7C     		ldrb	r3, [r5, #16]	@ zero_extendqisi2
 937              		.loc 1 244 36 view .LVU322
 938 043e 4FF00001 		mov	r1, #0	@ movhi
 939              		.loc 1 244 36 view .LVU323
 940 0442 63F30F21 		bfi	r1, r3, #8, #8
 941              	.LVL110:
 245:Core/Src/NOS_Strip_UART.c ****                 tempShort.bytes[0] = message->data[currPos++];
 942              		.loc 1 245 17 is_stmt 1 view .LVU324
 943              		.loc 1 245 51 is_stmt 0 view .LVU325
 944 0446 6B7C     		ldrb	r3, [r5, #17]	@ zero_extendqisi2
 945              		.loc 1 245 36 view .LVU326
 946 0448 63F30701 		bfi	r1, r3, #0, #8
 246:Core/Src/NOS_Strip_UART.c ****                 tempInt1 = tempShort.data;
 947              		.loc 1 246 17 is_stmt 1 view .LVU327
 948              		.loc 1 246 37 is_stmt 0 view .LVU328
 949 044c 8CB2     		uxth	r4, r1
 950              	.LVL111:
 247:Core/Src/NOS_Strip_UART.c **** 
 248:Core/Src/NOS_Strip_UART.c ****                 if(tempInt1 <= strip->pixelCount)
 951              		.loc 1 248 17 is_stmt 1 view .LVU329
 952              		.loc 1 248 37 is_stmt 0 view .LVU330
 953 044e B368     		ldr	r3, [r6, #8]
 954              		.loc 1 248 19 view .LVU331
 955 0450 A342     		cmp	r3, r4
 956 0452 01DA     		bge	.L33
 249:Core/Src/NOS_Strip_UART.c ****                 {
 250:Core/Src/NOS_Strip_UART.c ****                     for(int i = 0; i < tempInt1; i++)
 251:Core/Src/NOS_Strip_UART.c ****                     {
 252:Core/Src/NOS_Strip_UART.c ****                         r = message->data[currPos++];
 253:Core/Src/NOS_Strip_UART.c ****                         g = message->data[currPos++];
 254:Core/Src/NOS_Strip_UART.c ****                         b = message->data[currPos++];
 255:Core/Src/NOS_Strip_UART.c **** 
 256:Core/Src/NOS_Strip_UART.c ****                         NOS_WS2812B_Strip_SetPixel(strip,i,r,g,b);
 257:Core/Src/NOS_Strip_UART.c ****                     }
 258:Core/Src/NOS_Strip_UART.c ****                 }
 259:Core/Src/NOS_Strip_UART.c ****             
 260:Core/Src/NOS_Strip_UART.c ****             return true;
 957              		.loc 1 260 20 view .LVU332
 958 0454 0120     		movs	r0, #1
 959 0456 18E0     		b	.L2
 960              	.L33:
 961              	.LBB9:
 250:Core/Src/NOS_Strip_UART.c ****                     {
 962              		.loc 1 250 29 view .LVU333
 963 0458 4FF00008 		mov	r8, #0
 964              	.LBE9:
 245:Core/Src/NOS_Strip_UART.c ****                 tempInt1 = tempShort.data;
 965              		.loc 1 245 59 view .LVU334
 966 045c 0227     		movs	r7, #2
 967              	.LVL112:
 968              	.L29:
ARM GAS  C:\Users\igorn\AppData\Local\Temp\cchFVsBM.s 			page 23


 969              	.LBB10:
 250:Core/Src/NOS_Strip_UART.c ****                     {
 970              		.loc 1 250 38 is_stmt 1 discriminator 1 view .LVU335
 971 045e A045     		cmp	r8, r4
 972 0460 10DA     		bge	.L46
 252:Core/Src/NOS_Strip_UART.c ****                         g = message->data[currPos++];
 973              		.loc 1 252 25 discriminator 3 view .LVU336
 252:Core/Src/NOS_Strip_UART.c ****                         g = message->data[currPos++];
 974              		.loc 1 252 50 is_stmt 0 discriminator 3 view .LVU337
 975 0462 791C     		adds	r1, r7, #1
 976              	.LVL113:
 252:Core/Src/NOS_Strip_UART.c ****                         g = message->data[currPos++];
 977              		.loc 1 252 27 discriminator 3 view .LVU338
 978 0464 EA19     		adds	r2, r5, r7
 979              	.LVL114:
 253:Core/Src/NOS_Strip_UART.c ****                         b = message->data[currPos++];
 980              		.loc 1 253 25 is_stmt 1 discriminator 3 view .LVU339
 253:Core/Src/NOS_Strip_UART.c ****                         b = message->data[currPos++];
 981              		.loc 1 253 50 is_stmt 0 discriminator 3 view .LVU340
 982 0466 BB1C     		adds	r3, r7, #2
 983              	.LVL115:
 253:Core/Src/NOS_Strip_UART.c ****                         b = message->data[currPos++];
 984              		.loc 1 253 27 discriminator 3 view .LVU341
 985 0468 2944     		add	r1, r1, r5
 986              	.LVL116:
 254:Core/Src/NOS_Strip_UART.c **** 
 987              		.loc 1 254 25 is_stmt 1 discriminator 3 view .LVU342
 254:Core/Src/NOS_Strip_UART.c **** 
 988              		.loc 1 254 27 is_stmt 0 discriminator 3 view .LVU343
 989 046a 2B44     		add	r3, r3, r5
 990 046c 1B7C     		ldrb	r3, [r3, #16]	@ zero_extendqisi2
 991              	.LVL117:
 256:Core/Src/NOS_Strip_UART.c ****                     }
 992              		.loc 1 256 25 is_stmt 1 discriminator 3 view .LVU344
 993 046e 0093     		str	r3, [sp]
 994              	.LVL118:
 256:Core/Src/NOS_Strip_UART.c ****                     }
 995              		.loc 1 256 25 is_stmt 0 discriminator 3 view .LVU345
 996 0470 0B7C     		ldrb	r3, [r1, #16]	@ zero_extendqisi2
 997              	.LVL119:
 256:Core/Src/NOS_Strip_UART.c ****                     }
 998              		.loc 1 256 25 discriminator 3 view .LVU346
 999 0472 127C     		ldrb	r2, [r2, #16]	@ zero_extendqisi2
 1000 0474 0337     		adds	r7, r7, #3
 1001              	.LVL120:
 256:Core/Src/NOS_Strip_UART.c ****                     }
 1002              		.loc 1 256 25 discriminator 3 view .LVU347
 1003 0476 4146     		mov	r1, r8
 1004 0478 3046     		mov	r0, r6
 1005 047a FFF7FEFF 		bl	NOS_WS2812B_Strip_SetPixel
 1006              	.LVL121:
 250:Core/Src/NOS_Strip_UART.c ****                     {
 1007              		.loc 1 250 51 is_stmt 1 discriminator 3 view .LVU348
 1008 047e 08F10108 		add	r8, r8, #1
 1009              	.LVL122:
 250:Core/Src/NOS_Strip_UART.c ****                     {
 1010              		.loc 1 250 51 is_stmt 0 discriminator 3 view .LVU349
ARM GAS  C:\Users\igorn\AppData\Local\Temp\cchFVsBM.s 			page 24


 1011 0482 ECE7     		b	.L29
 1012              	.LVL123:
 1013              	.L46:
 250:Core/Src/NOS_Strip_UART.c ****                     {
 1014              		.loc 1 250 51 discriminator 3 view .LVU350
 1015              	.LBE10:
 1016              		.loc 1 260 20 view .LVU351
 1017 0484 0120     		movs	r0, #1
 1018              	.LBB11:
 1019 0486 00E0     		b	.L2
 1020              	.LVL124:
 1021              	.L31:
 1022              		.loc 1 260 20 view .LVU352
 1023              	.LBE11:
 1024              	.LBE6:
  12:Core/Src/NOS_Strip_UART.c ****     {
 1025              		.loc 1 12 5 view .LVU353
 1026 0488 0020     		movs	r0, #0
 1027              	.LVL125:
 1028              	.L2:
 261:Core/Src/NOS_Strip_UART.c ****             break;
 262:Core/Src/NOS_Strip_UART.c **** 
 263:Core/Src/NOS_Strip_UART.c **** 
 264:Core/Src/NOS_Strip_UART.c ****     default:
 265:Core/Src/NOS_Strip_UART.c **** 
 266:Core/Src/NOS_Strip_UART.c ****         break;
 267:Core/Src/NOS_Strip_UART.c ****     }
 268:Core/Src/NOS_Strip_UART.c **** 
 269:Core/Src/NOS_Strip_UART.c ****     return false;
 270:Core/Src/NOS_Strip_UART.c **** }
 1029              		.loc 1 270 1 view .LVU354
 1030 048a 15B0     		add	sp, sp, #84
 1031              		.cfi_def_cfa_offset 28
 1032              		@ sp needed
 1033 048c BDE8F083 		pop	{r4, r5, r6, r7, r8, r9, pc}
 1034              		.loc 1 270 1 view .LVU355
 1035              		.cfi_endproc
 1036              	.LFE132:
 1038              		.section	.text.getRainbowStageFromColor,"ax",%progbits
 1039              		.align	1
 1040              		.global	getRainbowStageFromColor
 1041              		.syntax unified
 1042              		.thumb
 1043              		.thumb_func
 1045              	getRainbowStageFromColor:
 1046              	.LFB133:
 271:Core/Src/NOS_Strip_UART.c **** 
 272:Core/Src/NOS_Strip_UART.c **** uint16_t getRainbowStageFromColor(PixelColor color)
 273:Core/Src/NOS_Strip_UART.c **** {
 1047              		.loc 1 273 1 is_stmt 1 view -0
 1048              		.cfi_startproc
 1049              		@ args = 0, pretend = 0, frame = 8
 1050              		@ frame_needed = 0, uses_anonymous_args = 0
 1051              		@ link register save eliminated.
 1052 0000 82B0     		sub	sp, sp, #8
 1053              		.cfi_def_cfa_offset 8
 1054 0002 0190     		str	r0, [sp, #4]
ARM GAS  C:\Users\igorn\AppData\Local\Temp\cchFVsBM.s 			page 25


 274:Core/Src/NOS_Strip_UART.c ****     uint16_t result = 0;
 1055              		.loc 1 274 5 view .LVU357
 1056              	.LVL126:
 275:Core/Src/NOS_Strip_UART.c **** 
 276:Core/Src/NOS_Strip_UART.c ****     if(color.R == 0 && color.G == 0 && color.B == 0xFF)
 1057              		.loc 1 276 5 view .LVU358
 1058              		.loc 1 276 13 is_stmt 0 view .LVU359
 1059 0004 9DF80430 		ldrb	r3, [sp, #4]	@ zero_extendqisi2
 277:Core/Src/NOS_Strip_UART.c ****     {
 278:Core/Src/NOS_Strip_UART.c ****         result = 0;
 279:Core/Src/NOS_Strip_UART.c ****     }
 280:Core/Src/NOS_Strip_UART.c **** 
 281:Core/Src/NOS_Strip_UART.c ****     if(color.R == 0x0 && color.G == 0x7F && color.B == 0xFF)
 1060              		.loc 1 281 5 is_stmt 1 view .LVU360
 1061              		.loc 1 281 7 is_stmt 0 view .LVU361
 1062 0008 5BB9     		cbnz	r3, .L59
 1063              		.loc 1 281 31 discriminator 1 view .LVU362
 1064 000a 9DF80520 		ldrb	r2, [sp, #5]	@ zero_extendqisi2
 1065              		.loc 1 281 23 discriminator 1 view .LVU363
 1066 000e 7F2A     		cmp	r2, #127
 1067 0010 01D0     		beq	.L73
 1068 0012 0020     		movs	r0, #0
 1069 0014 06E0     		b	.L48
 1070              	.L73:
 1071              		.loc 1 281 50 discriminator 2 view .LVU364
 1072 0016 9DF80620 		ldrb	r2, [sp, #6]	@ zero_extendqisi2
 1073              		.loc 1 281 42 discriminator 2 view .LVU365
 1074 001a FF2A     		cmp	r2, #255
 1075 001c 21D0     		beq	.L61
 1076              		.loc 1 281 42 view .LVU366
 1077 001e 0020     		movs	r0, #0
 1078 0020 00E0     		b	.L48
 1079              	.L59:
 1080 0022 0020     		movs	r0, #0
 1081              	.L48:
 1082              	.LVL127:
 282:Core/Src/NOS_Strip_UART.c ****     {
 283:Core/Src/NOS_Strip_UART.c ****         result = 127;
 284:Core/Src/NOS_Strip_UART.c ****     }
 285:Core/Src/NOS_Strip_UART.c **** 
 286:Core/Src/NOS_Strip_UART.c ****     if(color.R == 0 && color.G == 0xFF && color.B == 0xFF)
 1083              		.loc 1 286 5 is_stmt 1 view .LVU367
 1084              		.loc 1 286 7 is_stmt 0 view .LVU368
 1085 0024 1BB9     		cbnz	r3, .L49
 1086              		.loc 1 286 29 discriminator 1 view .LVU369
 1087 0026 9DF80520 		ldrb	r2, [sp, #5]	@ zero_extendqisi2
 1088              		.loc 1 286 21 discriminator 1 view .LVU370
 1089 002a FF2A     		cmp	r2, #255
 1090 002c 1BD0     		beq	.L74
 1091              	.LVL128:
 1092              	.L49:
 287:Core/Src/NOS_Strip_UART.c ****     {
 288:Core/Src/NOS_Strip_UART.c ****         result = 254;
 289:Core/Src/NOS_Strip_UART.c ****     }
 290:Core/Src/NOS_Strip_UART.c **** 
 291:Core/Src/NOS_Strip_UART.c ****     if(color.R == 0 && color.G == 0xFF && color.B == 0x7F)
 1093              		.loc 1 291 5 is_stmt 1 view .LVU371
ARM GAS  C:\Users\igorn\AppData\Local\Temp\cchFVsBM.s 			page 26


 1094              		.loc 1 291 7 is_stmt 0 view .LVU372
 1095 002e 1BB9     		cbnz	r3, .L50
 1096              		.loc 1 291 29 discriminator 1 view .LVU373
 1097 0030 9DF80520 		ldrb	r2, [sp, #5]	@ zero_extendqisi2
 1098              		.loc 1 291 21 discriminator 1 view .LVU374
 1099 0034 FF2A     		cmp	r2, #255
 1100 0036 1CD0     		beq	.L75
 1101              	.LVL129:
 1102              	.L50:
 292:Core/Src/NOS_Strip_UART.c ****     {
 293:Core/Src/NOS_Strip_UART.c ****         result = 381;
 294:Core/Src/NOS_Strip_UART.c ****     }
 295:Core/Src/NOS_Strip_UART.c **** 
 296:Core/Src/NOS_Strip_UART.c ****     if(color.R == 0 && color.G == 0xFF && color.B == 0)
 1103              		.loc 1 296 5 is_stmt 1 view .LVU375
 1104              		.loc 1 296 7 is_stmt 0 view .LVU376
 1105 0038 1BB9     		cbnz	r3, .L51
 1106              		.loc 1 296 29 discriminator 1 view .LVU377
 1107 003a 9DF80520 		ldrb	r2, [sp, #5]	@ zero_extendqisi2
 1108              		.loc 1 296 21 discriminator 1 view .LVU378
 1109 003e FF2A     		cmp	r2, #255
 1110 0040 1ED0     		beq	.L76
 1111              	.LVL130:
 1112              	.L51:
 297:Core/Src/NOS_Strip_UART.c ****     {
 298:Core/Src/NOS_Strip_UART.c ****         result = 508;
 299:Core/Src/NOS_Strip_UART.c ****     }
 300:Core/Src/NOS_Strip_UART.c **** 
 301:Core/Src/NOS_Strip_UART.c ****     if(color.R == 0x7F && color.G == 0xFF && color.B == 0)
 1113              		.loc 1 301 5 is_stmt 1 view .LVU379
 1114              		.loc 1 301 7 is_stmt 0 view .LVU380
 1115 0042 7F2B     		cmp	r3, #127
 1116 0044 23D0     		beq	.L77
 1117              	.LVL131:
 1118              	.L52:
 302:Core/Src/NOS_Strip_UART.c ****     {
 303:Core/Src/NOS_Strip_UART.c ****         result = 635;
 304:Core/Src/NOS_Strip_UART.c ****     }
 305:Core/Src/NOS_Strip_UART.c **** 
 306:Core/Src/NOS_Strip_UART.c ****     if(color.R == 0xFF && color.G == 0xFF && color.B == 0)
 1119              		.loc 1 306 5 is_stmt 1 view .LVU381
 1120              		.loc 1 306 7 is_stmt 0 view .LVU382
 1121 0046 FF2B     		cmp	r3, #255
 1122 0048 2CD0     		beq	.L78
 1123              	.LVL132:
 1124              	.L53:
 307:Core/Src/NOS_Strip_UART.c ****     {
 308:Core/Src/NOS_Strip_UART.c ****         result = 762;
 309:Core/Src/NOS_Strip_UART.c ****     }
 310:Core/Src/NOS_Strip_UART.c **** 
 311:Core/Src/NOS_Strip_UART.c ****     if(color.R == 0xFF && color.G == 0x7F && color.B == 0)
 1125              		.loc 1 311 5 is_stmt 1 view .LVU383
 1126              		.loc 1 311 7 is_stmt 0 view .LVU384
 1127 004a FF2B     		cmp	r3, #255
 1128 004c 35D0     		beq	.L79
 1129              	.LVL133:
 1130              	.L54:
ARM GAS  C:\Users\igorn\AppData\Local\Temp\cchFVsBM.s 			page 27


 312:Core/Src/NOS_Strip_UART.c ****     {
 313:Core/Src/NOS_Strip_UART.c ****         result = 889;
 314:Core/Src/NOS_Strip_UART.c ****     }
 315:Core/Src/NOS_Strip_UART.c **** 
 316:Core/Src/NOS_Strip_UART.c ****     if(color.R == 0xFF && color.G == 0 && color.B == 0)
 1131              		.loc 1 316 5 is_stmt 1 view .LVU385
 1132              		.loc 1 316 7 is_stmt 0 view .LVU386
 1133 004e FF2B     		cmp	r3, #255
 1134 0050 3ED0     		beq	.L80
 1135              	.LVL134:
 1136              	.L55:
 317:Core/Src/NOS_Strip_UART.c ****     {
 318:Core/Src/NOS_Strip_UART.c ****         result = 1016;
 319:Core/Src/NOS_Strip_UART.c ****     }
 320:Core/Src/NOS_Strip_UART.c **** 
 321:Core/Src/NOS_Strip_UART.c ****     if(color.R == 0xFF && color.G == 0 && color.B == 0x7F)
 1137              		.loc 1 321 5 is_stmt 1 view .LVU387
 1138              		.loc 1 321 7 is_stmt 0 view .LVU388
 1139 0052 FF2B     		cmp	r3, #255
 1140 0054 47D0     		beq	.L81
 1141              	.LVL135:
 1142              	.L56:
 322:Core/Src/NOS_Strip_UART.c ****     {
 323:Core/Src/NOS_Strip_UART.c ****         result = 1143;
 324:Core/Src/NOS_Strip_UART.c ****     }
 325:Core/Src/NOS_Strip_UART.c **** 
 326:Core/Src/NOS_Strip_UART.c ****     if(color.R == 0xFF && color.G == 0 && color.B == 0xFF)
 1143              		.loc 1 326 5 is_stmt 1 view .LVU389
 1144              		.loc 1 326 7 is_stmt 0 view .LVU390
 1145 0056 FF2B     		cmp	r3, #255
 1146 0058 50D0     		beq	.L82
 1147              	.LVL136:
 1148              	.L57:
 327:Core/Src/NOS_Strip_UART.c ****     {
 328:Core/Src/NOS_Strip_UART.c ****         result = 1270;
 329:Core/Src/NOS_Strip_UART.c ****     }
 330:Core/Src/NOS_Strip_UART.c **** 
 331:Core/Src/NOS_Strip_UART.c ****     if(color.R == 0x7F && color.G == 0 && color.B == 0xFF)
 1149              		.loc 1 331 5 is_stmt 1 view .LVU391
 1150              		.loc 1 331 7 is_stmt 0 view .LVU392
 1151 005a 7F2B     		cmp	r3, #127
 1152 005c 59D0     		beq	.L83
 1153              	.LVL137:
 1154              	.L58:
 332:Core/Src/NOS_Strip_UART.c ****     {
 333:Core/Src/NOS_Strip_UART.c ****         result = 1397;
 334:Core/Src/NOS_Strip_UART.c ****     }
 335:Core/Src/NOS_Strip_UART.c ****     
 336:Core/Src/NOS_Strip_UART.c ****     return result;
 1155              		.loc 1 336 5 is_stmt 1 view .LVU393
 337:Core/Src/NOS_Strip_UART.c **** }
 1156              		.loc 1 337 1 is_stmt 0 view .LVU394
 1157 005e 02B0     		add	sp, sp, #8
 1158              		.cfi_remember_state
 1159              		.cfi_def_cfa_offset 0
 1160              		@ sp needed
 1161 0060 7047     		bx	lr
ARM GAS  C:\Users\igorn\AppData\Local\Temp\cchFVsBM.s 			page 28


 1162              	.LVL138:
 1163              	.L61:
 1164              		.cfi_restore_state
 283:Core/Src/NOS_Strip_UART.c ****     }
 1165              		.loc 1 283 16 view .LVU395
 1166 0062 7F20     		movs	r0, #127
 1167 0064 DEE7     		b	.L48
 1168              	.LVL139:
 1169              	.L74:
 286:Core/Src/NOS_Strip_UART.c ****     {
 1170              		.loc 1 286 48 discriminator 2 view .LVU396
 1171 0066 9DF80620 		ldrb	r2, [sp, #6]	@ zero_extendqisi2
 286:Core/Src/NOS_Strip_UART.c ****     {
 1172              		.loc 1 286 40 discriminator 2 view .LVU397
 1173 006a FF2A     		cmp	r2, #255
 1174 006c DFD1     		bne	.L49
 288:Core/Src/NOS_Strip_UART.c ****     }
 1175              		.loc 1 288 16 view .LVU398
 1176 006e FE20     		movs	r0, #254
 1177              	.LVL140:
 288:Core/Src/NOS_Strip_UART.c ****     }
 1178              		.loc 1 288 16 view .LVU399
 1179 0070 DDE7     		b	.L49
 1180              	.LVL141:
 1181              	.L75:
 291:Core/Src/NOS_Strip_UART.c ****     {
 1182              		.loc 1 291 48 discriminator 2 view .LVU400
 1183 0072 9DF80620 		ldrb	r2, [sp, #6]	@ zero_extendqisi2
 291:Core/Src/NOS_Strip_UART.c ****     {
 1184              		.loc 1 291 40 discriminator 2 view .LVU401
 1185 0076 7F2A     		cmp	r2, #127
 1186 0078 DED1     		bne	.L50
 293:Core/Src/NOS_Strip_UART.c ****     }
 1187              		.loc 1 293 16 view .LVU402
 1188 007a 40F27D10 		movw	r0, #381
 1189              	.LVL142:
 293:Core/Src/NOS_Strip_UART.c ****     }
 1190              		.loc 1 293 16 view .LVU403
 1191 007e DBE7     		b	.L50
 1192              	.LVL143:
 1193              	.L76:
 296:Core/Src/NOS_Strip_UART.c ****     {
 1194              		.loc 1 296 48 discriminator 2 view .LVU404
 1195 0080 9DF80620 		ldrb	r2, [sp, #6]	@ zero_extendqisi2
 296:Core/Src/NOS_Strip_UART.c ****     {
 1196              		.loc 1 296 40 discriminator 2 view .LVU405
 1197 0084 002A     		cmp	r2, #0
 1198 0086 DCD1     		bne	.L51
 298:Core/Src/NOS_Strip_UART.c ****     }
 1199              		.loc 1 298 16 view .LVU406
 1200 0088 4FF4FE70 		mov	r0, #508
 1201              	.LVL144:
 298:Core/Src/NOS_Strip_UART.c ****     }
 1202              		.loc 1 298 16 view .LVU407
 1203 008c D9E7     		b	.L51
 1204              	.LVL145:
 1205              	.L77:
ARM GAS  C:\Users\igorn\AppData\Local\Temp\cchFVsBM.s 			page 29


 301:Core/Src/NOS_Strip_UART.c ****     {
 1206              		.loc 1 301 32 discriminator 1 view .LVU408
 1207 008e 9DF80520 		ldrb	r2, [sp, #5]	@ zero_extendqisi2
 301:Core/Src/NOS_Strip_UART.c ****     {
 1208              		.loc 1 301 24 discriminator 1 view .LVU409
 1209 0092 FF2A     		cmp	r2, #255
 1210 0094 D7D1     		bne	.L52
 301:Core/Src/NOS_Strip_UART.c ****     {
 1211              		.loc 1 301 51 discriminator 2 view .LVU410
 1212 0096 9DF80620 		ldrb	r2, [sp, #6]	@ zero_extendqisi2
 301:Core/Src/NOS_Strip_UART.c ****     {
 1213              		.loc 1 301 43 discriminator 2 view .LVU411
 1214 009a 002A     		cmp	r2, #0
 1215 009c D3D1     		bne	.L52
 303:Core/Src/NOS_Strip_UART.c ****     }
 1216              		.loc 1 303 16 view .LVU412
 1217 009e 40F27B20 		movw	r0, #635
 1218              	.LVL146:
 303:Core/Src/NOS_Strip_UART.c ****     }
 1219              		.loc 1 303 16 view .LVU413
 1220 00a2 D0E7     		b	.L52
 1221              	.LVL147:
 1222              	.L78:
 306:Core/Src/NOS_Strip_UART.c ****     {
 1223              		.loc 1 306 32 discriminator 1 view .LVU414
 1224 00a4 9DF80520 		ldrb	r2, [sp, #5]	@ zero_extendqisi2
 306:Core/Src/NOS_Strip_UART.c ****     {
 1225              		.loc 1 306 24 discriminator 1 view .LVU415
 1226 00a8 FF2A     		cmp	r2, #255
 1227 00aa CED1     		bne	.L53
 306:Core/Src/NOS_Strip_UART.c ****     {
 1228              		.loc 1 306 51 discriminator 2 view .LVU416
 1229 00ac 9DF80620 		ldrb	r2, [sp, #6]	@ zero_extendqisi2
 306:Core/Src/NOS_Strip_UART.c ****     {
 1230              		.loc 1 306 43 discriminator 2 view .LVU417
 1231 00b0 002A     		cmp	r2, #0
 1232 00b2 CAD1     		bne	.L53
 308:Core/Src/NOS_Strip_UART.c ****     }
 1233              		.loc 1 308 16 view .LVU418
 1234 00b4 40F2FA20 		movw	r0, #762
 1235              	.LVL148:
 308:Core/Src/NOS_Strip_UART.c ****     }
 1236              		.loc 1 308 16 view .LVU419
 1237 00b8 C7E7     		b	.L53
 1238              	.LVL149:
 1239              	.L79:
 311:Core/Src/NOS_Strip_UART.c ****     {
 1240              		.loc 1 311 32 discriminator 1 view .LVU420
 1241 00ba 9DF80520 		ldrb	r2, [sp, #5]	@ zero_extendqisi2
 311:Core/Src/NOS_Strip_UART.c ****     {
 1242              		.loc 1 311 24 discriminator 1 view .LVU421
 1243 00be 7F2A     		cmp	r2, #127
 1244 00c0 C5D1     		bne	.L54
 311:Core/Src/NOS_Strip_UART.c ****     {
 1245              		.loc 1 311 51 discriminator 2 view .LVU422
 1246 00c2 9DF80620 		ldrb	r2, [sp, #6]	@ zero_extendqisi2
 311:Core/Src/NOS_Strip_UART.c ****     {
ARM GAS  C:\Users\igorn\AppData\Local\Temp\cchFVsBM.s 			page 30


 1247              		.loc 1 311 43 discriminator 2 view .LVU423
 1248 00c6 002A     		cmp	r2, #0
 1249 00c8 C1D1     		bne	.L54
 313:Core/Src/NOS_Strip_UART.c ****     }
 1250              		.loc 1 313 16 view .LVU424
 1251 00ca 40F27930 		movw	r0, #889
 1252              	.LVL150:
 313:Core/Src/NOS_Strip_UART.c ****     }
 1253              		.loc 1 313 16 view .LVU425
 1254 00ce BEE7     		b	.L54
 1255              	.LVL151:
 1256              	.L80:
 316:Core/Src/NOS_Strip_UART.c ****     {
 1257              		.loc 1 316 32 discriminator 1 view .LVU426
 1258 00d0 9DF80520 		ldrb	r2, [sp, #5]	@ zero_extendqisi2
 316:Core/Src/NOS_Strip_UART.c ****     {
 1259              		.loc 1 316 24 discriminator 1 view .LVU427
 1260 00d4 002A     		cmp	r2, #0
 1261 00d6 BCD1     		bne	.L55
 316:Core/Src/NOS_Strip_UART.c ****     {
 1262              		.loc 1 316 48 discriminator 2 view .LVU428
 1263 00d8 9DF80620 		ldrb	r2, [sp, #6]	@ zero_extendqisi2
 316:Core/Src/NOS_Strip_UART.c ****     {
 1264              		.loc 1 316 40 discriminator 2 view .LVU429
 1265 00dc 002A     		cmp	r2, #0
 1266 00de B8D1     		bne	.L55
 318:Core/Src/NOS_Strip_UART.c ****     }
 1267              		.loc 1 318 16 view .LVU430
 1268 00e0 4FF47E70 		mov	r0, #1016
 1269              	.LVL152:
 318:Core/Src/NOS_Strip_UART.c ****     }
 1270              		.loc 1 318 16 view .LVU431
 1271 00e4 B5E7     		b	.L55
 1272              	.LVL153:
 1273              	.L81:
 321:Core/Src/NOS_Strip_UART.c ****     {
 1274              		.loc 1 321 32 discriminator 1 view .LVU432
 1275 00e6 9DF80520 		ldrb	r2, [sp, #5]	@ zero_extendqisi2
 321:Core/Src/NOS_Strip_UART.c ****     {
 1276              		.loc 1 321 24 discriminator 1 view .LVU433
 1277 00ea 002A     		cmp	r2, #0
 1278 00ec B3D1     		bne	.L56
 321:Core/Src/NOS_Strip_UART.c ****     {
 1279              		.loc 1 321 48 discriminator 2 view .LVU434
 1280 00ee 9DF80620 		ldrb	r2, [sp, #6]	@ zero_extendqisi2
 321:Core/Src/NOS_Strip_UART.c ****     {
 1281              		.loc 1 321 40 discriminator 2 view .LVU435
 1282 00f2 7F2A     		cmp	r2, #127
 1283 00f4 AFD1     		bne	.L56
 323:Core/Src/NOS_Strip_UART.c ****     }
 1284              		.loc 1 323 16 view .LVU436
 1285 00f6 40F27740 		movw	r0, #1143
 1286              	.LVL154:
 323:Core/Src/NOS_Strip_UART.c ****     }
 1287              		.loc 1 323 16 view .LVU437
 1288 00fa ACE7     		b	.L56
 1289              	.LVL155:
ARM GAS  C:\Users\igorn\AppData\Local\Temp\cchFVsBM.s 			page 31


 1290              	.L82:
 326:Core/Src/NOS_Strip_UART.c ****     {
 1291              		.loc 1 326 32 discriminator 1 view .LVU438
 1292 00fc 9DF80520 		ldrb	r2, [sp, #5]	@ zero_extendqisi2
 326:Core/Src/NOS_Strip_UART.c ****     {
 1293              		.loc 1 326 24 discriminator 1 view .LVU439
 1294 0100 002A     		cmp	r2, #0
 1295 0102 AAD1     		bne	.L57
 326:Core/Src/NOS_Strip_UART.c ****     {
 1296              		.loc 1 326 48 discriminator 2 view .LVU440
 1297 0104 9DF80620 		ldrb	r2, [sp, #6]	@ zero_extendqisi2
 326:Core/Src/NOS_Strip_UART.c ****     {
 1298              		.loc 1 326 40 discriminator 2 view .LVU441
 1299 0108 FF2A     		cmp	r2, #255
 1300 010a A6D1     		bne	.L57
 328:Core/Src/NOS_Strip_UART.c ****     }
 1301              		.loc 1 328 16 view .LVU442
 1302 010c 40F2F640 		movw	r0, #1270
 1303              	.LVL156:
 328:Core/Src/NOS_Strip_UART.c ****     }
 1304              		.loc 1 328 16 view .LVU443
 1305 0110 A3E7     		b	.L57
 1306              	.LVL157:
 1307              	.L83:
 331:Core/Src/NOS_Strip_UART.c ****     {
 1308              		.loc 1 331 32 discriminator 1 view .LVU444
 1309 0112 9DF80530 		ldrb	r3, [sp, #5]	@ zero_extendqisi2
 331:Core/Src/NOS_Strip_UART.c ****     {
 1310              		.loc 1 331 24 discriminator 1 view .LVU445
 1311 0116 002B     		cmp	r3, #0
 1312 0118 A1D1     		bne	.L58
 331:Core/Src/NOS_Strip_UART.c ****     {
 1313              		.loc 1 331 48 discriminator 2 view .LVU446
 1314 011a 9DF80630 		ldrb	r3, [sp, #6]	@ zero_extendqisi2
 331:Core/Src/NOS_Strip_UART.c ****     {
 1315              		.loc 1 331 40 discriminator 2 view .LVU447
 1316 011e FF2B     		cmp	r3, #255
 1317 0120 9DD1     		bne	.L58
 333:Core/Src/NOS_Strip_UART.c ****     }
 1318              		.loc 1 333 16 view .LVU448
 1319 0122 40F27550 		movw	r0, #1397
 1320              	.LVL158:
 333:Core/Src/NOS_Strip_UART.c ****     }
 1321              		.loc 1 333 16 view .LVU449
 1322 0126 9AE7     		b	.L58
 1323              		.cfi_endproc
 1324              	.LFE133:
 1326              		.global	__aeabi_i2d
 1327              		.global	__aeabi_d2iz
 1328              		.section	.text.getU16ParamFromString,"ax",%progbits
 1329              		.align	1
 1330              		.global	getU16ParamFromString
 1331              		.syntax unified
 1332              		.thumb
 1333              		.thumb_func
 1335              	getU16ParamFromString:
 1336              	.LVL159:
ARM GAS  C:\Users\igorn\AppData\Local\Temp\cchFVsBM.s 			page 32


 1337              	.LFB134:
 338:Core/Src/NOS_Strip_UART.c **** 
 339:Core/Src/NOS_Strip_UART.c **** uint16_t getU16ParamFromString(char* message, int lenght)
 340:Core/Src/NOS_Strip_UART.c **** {
 1338              		.loc 1 340 1 is_stmt 1 view -0
 1339              		.cfi_startproc
 1340              		@ args = 0, pretend = 0, frame = 0
 1341              		@ frame_needed = 0, uses_anonymous_args = 0
 1342              		.loc 1 340 1 is_stmt 0 view .LVU451
 1343 0000 2DE9F843 		push	{r3, r4, r5, r6, r7, r8, r9, lr}
 1344              		.cfi_def_cfa_offset 32
 1345              		.cfi_offset 3, -32
 1346              		.cfi_offset 4, -28
 1347              		.cfi_offset 5, -24
 1348              		.cfi_offset 6, -20
 1349              		.cfi_offset 7, -16
 1350              		.cfi_offset 8, -12
 1351              		.cfi_offset 9, -8
 1352              		.cfi_offset 14, -4
 1353 0004 0746     		mov	r7, r0
 1354 0006 0E46     		mov	r6, r1
 341:Core/Src/NOS_Strip_UART.c ****     int power = lenght - 1;
 1355              		.loc 1 341 5 is_stmt 1 view .LVU452
 1356              		.loc 1 341 9 is_stmt 0 view .LVU453
 1357 0008 01F1FF38 		add	r8, r1, #-1
 1358              	.LVL160:
 342:Core/Src/NOS_Strip_UART.c **** 
 343:Core/Src/NOS_Strip_UART.c ****     uint16_t result = 0;
 1359              		.loc 1 343 5 is_stmt 1 view .LVU454
 344:Core/Src/NOS_Strip_UART.c **** 
 345:Core/Src/NOS_Strip_UART.c ****     for (int i = 0; i < lenght; i++)
 1360              		.loc 1 345 5 view .LVU455
 1361              	.LBB12:
 1362              		.loc 1 345 10 view .LVU456
 1363              		.loc 1 345 14 is_stmt 0 view .LVU457
 1364 000c 0025     		movs	r5, #0
 1365              	.LBE12:
 343:Core/Src/NOS_Strip_UART.c **** 
 1366              		.loc 1 343 14 view .LVU458
 1367 000e A946     		mov	r9, r5
 1368              	.LBB15:
 1369              		.loc 1 345 5 view .LVU459
 1370 0010 00E0     		b	.L85
 1371              	.LVL161:
 1372              	.L86:
 1373              		.loc 1 345 34 is_stmt 1 discriminator 2 view .LVU460
 1374 0012 0135     		adds	r5, r5, #1
 1375              	.LVL162:
 1376              	.L85:
 1377              		.loc 1 345 23 discriminator 1 view .LVU461
 1378 0014 B542     		cmp	r5, r6
 1379 0016 19DA     		bge	.L89
 1380              	.LBB13:
 346:Core/Src/NOS_Strip_UART.c ****     {
 347:Core/Src/NOS_Strip_UART.c ****         uint8_t num = message[i] - 48;
 1381              		.loc 1 347 9 view .LVU462
 1382              		.loc 1 347 30 is_stmt 0 view .LVU463
ARM GAS  C:\Users\igorn\AppData\Local\Temp\cchFVsBM.s 			page 33


 1383 0018 7C5D     		ldrb	r4, [r7, r5]	@ zero_extendqisi2
 1384              		.loc 1 347 17 view .LVU464
 1385 001a 303C     		subs	r4, r4, #48
 1386 001c E4B2     		uxtb	r4, r4
 1387              	.LVL163:
 348:Core/Src/NOS_Strip_UART.c **** 
 349:Core/Src/NOS_Strip_UART.c ****         if (num >= 0 && num < 10)
 1388              		.loc 1 349 9 is_stmt 1 view .LVU465
 1389              		.loc 1 349 12 is_stmt 0 view .LVU466
 1390 001e 092C     		cmp	r4, #9
 1391 0020 F7D8     		bhi	.L86
 1392              	.LBB14:
 350:Core/Src/NOS_Strip_UART.c ****         {
 351:Core/Src/NOS_Strip_UART.c ****             int x = pow(10,power);
 1393              		.loc 1 351 13 is_stmt 1 view .LVU467
 1394              		.loc 1 351 21 is_stmt 0 view .LVU468
 1395 0022 4046     		mov	r0, r8
 1396 0024 FFF7FEFF 		bl	__aeabi_i2d
 1397              	.LVL164:
 1398 0028 41EC110B 		vmov	d1, r0, r1
 1399 002c 9FED0A0B 		vldr.64	d0, .L90
 1400 0030 FFF7FEFF 		bl	pow
 1401              	.LVL165:
 1402 0034 51EC100B 		vmov	r0, r1, d0
 1403              		.loc 1 351 17 view .LVU469
 1404 0038 FFF7FEFF 		bl	__aeabi_d2iz
 1405              	.LVL166:
 352:Core/Src/NOS_Strip_UART.c ****             result += num * x;
 1406              		.loc 1 352 13 is_stmt 1 view .LVU470
 1407              		.loc 1 352 20 is_stmt 0 view .LVU471
 1408 003c 14FB00F4 		smulbb	r4, r4, r0
 1409              	.LVL167:
 1410              		.loc 1 352 20 view .LVU472
 1411 0040 4C44     		add	r4, r4, r9
 1412 0042 1FFA84F9 		uxth	r9, r4
 1413              	.LVL168:
 353:Core/Src/NOS_Strip_UART.c ****             power--;
 1414              		.loc 1 353 13 is_stmt 1 view .LVU473
 1415              		.loc 1 353 18 is_stmt 0 view .LVU474
 1416 0046 08F1FF38 		add	r8, r8, #-1
 1417              	.LVL169:
 1418              		.loc 1 353 18 view .LVU475
 1419 004a E2E7     		b	.L86
 1420              	.LVL170:
 1421              	.L89:
 1422              		.loc 1 353 18 view .LVU476
 1423              	.LBE14:
 1424              	.LBE13:
 1425              	.LBE15:
 354:Core/Src/NOS_Strip_UART.c ****         }
 355:Core/Src/NOS_Strip_UART.c ****     }
 356:Core/Src/NOS_Strip_UART.c **** 
 357:Core/Src/NOS_Strip_UART.c ****     return result;
 1426              		.loc 1 357 5 is_stmt 1 view .LVU477
 358:Core/Src/NOS_Strip_UART.c **** }
 1427              		.loc 1 358 1 is_stmt 0 view .LVU478
 1428 004c 4846     		mov	r0, r9
ARM GAS  C:\Users\igorn\AppData\Local\Temp\cchFVsBM.s 			page 34


 1429 004e BDE8F883 		pop	{r3, r4, r5, r6, r7, r8, r9, pc}
 1430              	.LVL171:
 1431              	.L91:
 1432              		.loc 1 358 1 view .LVU479
 1433 0052 00BFAFF3 		.align	3
 1433      0080
 1434              	.L90:
 1435 0058 00000000 		.word	0
 1436 005c 00002440 		.word	1076101120
 1437              		.cfi_endproc
 1438              	.LFE134:
 1440              		.section	.text.getHex,"ax",%progbits
 1441              		.align	1
 1442              		.global	getHex
 1443              		.syntax unified
 1444              		.thumb
 1445              		.thumb_func
 1447              	getHex:
 1448              	.LVL172:
 1449              	.LFB136:
 359:Core/Src/NOS_Strip_UART.c **** 
 360:Core/Src/NOS_Strip_UART.c **** inline uint8_t getDigitFromChar(char c)
 361:Core/Src/NOS_Strip_UART.c **** {
 362:Core/Src/NOS_Strip_UART.c ****     if (c >= 48 && c <= 57)
 363:Core/Src/NOS_Strip_UART.c ****     {
 364:Core/Src/NOS_Strip_UART.c ****         return c - 48;
 365:Core/Src/NOS_Strip_UART.c ****     }
 366:Core/Src/NOS_Strip_UART.c **** 
 367:Core/Src/NOS_Strip_UART.c ****     if (c >= 97 && c <= 102)
 368:Core/Src/NOS_Strip_UART.c ****     {
 369:Core/Src/NOS_Strip_UART.c ****         return c - 97 + 10;
 370:Core/Src/NOS_Strip_UART.c ****     }
 371:Core/Src/NOS_Strip_UART.c **** }
 372:Core/Src/NOS_Strip_UART.c **** 
 373:Core/Src/NOS_Strip_UART.c **** uint8_t getHex(char* hex)
 374:Core/Src/NOS_Strip_UART.c **** {
 1450              		.loc 1 374 1 is_stmt 1 view -0
 1451              		.cfi_startproc
 1452              		@ args = 0, pretend = 0, frame = 0
 1453              		@ frame_needed = 0, uses_anonymous_args = 0
 1454              		@ link register save eliminated.
 375:Core/Src/NOS_Strip_UART.c ****     uint8_t firstDigit = getDigitFromChar(hex[0]);
 1455              		.loc 1 375 5 view .LVU481
 1456              		.loc 1 375 26 is_stmt 0 view .LVU482
 1457 0000 0278     		ldrb	r2, [r0]	@ zero_extendqisi2
 1458              	.LVL173:
 1459              	.LBB16:
 1460              	.LBI16:
 360:Core/Src/NOS_Strip_UART.c **** {
 1461              		.loc 1 360 16 is_stmt 1 view .LVU483
 1462              	.LBB17:
 362:Core/Src/NOS_Strip_UART.c ****     {
 1463              		.loc 1 362 5 view .LVU484
 362:Core/Src/NOS_Strip_UART.c ****     {
 1464              		.loc 1 362 17 is_stmt 0 view .LVU485
 1465 0002 A2F13003 		sub	r3, r2, #48
 1466 0006 DBB2     		uxtb	r3, r3
ARM GAS  C:\Users\igorn\AppData\Local\Temp\cchFVsBM.s 			page 35


 362:Core/Src/NOS_Strip_UART.c ****     {
 1467              		.loc 1 362 8 view .LVU486
 1468 0008 092B     		cmp	r3, #9
 1469 000a 04D9     		bls	.L93
 367:Core/Src/NOS_Strip_UART.c ****     {
 1470              		.loc 1 367 5 is_stmt 1 view .LVU487
 367:Core/Src/NOS_Strip_UART.c ****     {
 1471              		.loc 1 367 17 is_stmt 0 view .LVU488
 1472 000c A2F16101 		sub	r1, r2, #97
 1473 0010 C9B2     		uxtb	r1, r1
 367:Core/Src/NOS_Strip_UART.c ****     {
 1474              		.loc 1 367 8 view .LVU489
 1475 0012 0529     		cmp	r1, #5
 1476 0014 0FD9     		bls	.L95
 1477              	.LVL174:
 1478              	.L93:
 367:Core/Src/NOS_Strip_UART.c ****     {
 1479              		.loc 1 367 8 view .LVU490
 1480              	.LBE17:
 1481              	.LBE16:
 376:Core/Src/NOS_Strip_UART.c ****     uint8_t secondDigit = getDigitFromChar(hex[1]);
 1482              		.loc 1 376 5 is_stmt 1 view .LVU491
 1483              		.loc 1 376 27 is_stmt 0 view .LVU492
 1484 0016 4178     		ldrb	r1, [r0, #1]	@ zero_extendqisi2
 1485              	.LVL175:
 1486              	.LBB19:
 1487              	.LBI19:
 360:Core/Src/NOS_Strip_UART.c **** {
 1488              		.loc 1 360 16 is_stmt 1 view .LVU493
 1489              	.LBB20:
 362:Core/Src/NOS_Strip_UART.c ****     {
 1490              		.loc 1 362 5 view .LVU494
 362:Core/Src/NOS_Strip_UART.c ****     {
 1491              		.loc 1 362 17 is_stmt 0 view .LVU495
 1492 0018 A1F13002 		sub	r2, r1, #48
 1493 001c D2B2     		uxtb	r2, r2
 362:Core/Src/NOS_Strip_UART.c ****     {
 1494              		.loc 1 362 8 view .LVU496
 1495 001e 092A     		cmp	r2, #9
 1496 0020 04D9     		bls	.L94
 367:Core/Src/NOS_Strip_UART.c ****     {
 1497              		.loc 1 367 5 is_stmt 1 view .LVU497
 367:Core/Src/NOS_Strip_UART.c ****     {
 1498              		.loc 1 367 17 is_stmt 0 view .LVU498
 1499 0022 A1F16100 		sub	r0, r1, #97
 1500              	.LVL176:
 367:Core/Src/NOS_Strip_UART.c ****     {
 1501              		.loc 1 367 17 view .LVU499
 1502 0026 C0B2     		uxtb	r0, r0
 367:Core/Src/NOS_Strip_UART.c ****     {
 1503              		.loc 1 367 8 view .LVU500
 1504 0028 0528     		cmp	r0, #5
 1505 002a 07D9     		bls	.L96
 1506              	.LVL177:
 1507              	.L94:
 367:Core/Src/NOS_Strip_UART.c ****     {
 1508              		.loc 1 367 8 view .LVU501
ARM GAS  C:\Users\igorn\AppData\Local\Temp\cchFVsBM.s 			page 36


 1509              	.LBE20:
 1510              	.LBE19:
 377:Core/Src/NOS_Strip_UART.c **** 
 378:Core/Src/NOS_Strip_UART.c ****     uint8_t result = 0;
 1511              		.loc 1 378 5 is_stmt 1 view .LVU502
 379:Core/Src/NOS_Strip_UART.c **** 
 380:Core/Src/NOS_Strip_UART.c ****     result += firstDigit * 16;
 1512              		.loc 1 380 5 view .LVU503
 1513              		.loc 1 380 12 is_stmt 0 view .LVU504
 1514 002c 1801     		lsls	r0, r3, #4
 1515 002e C0B2     		uxtb	r0, r0
 1516              	.LVL178:
 381:Core/Src/NOS_Strip_UART.c ****     result += secondDigit;
 1517              		.loc 1 381 5 is_stmt 1 view .LVU505
 1518              		.loc 1 381 12 is_stmt 0 view .LVU506
 1519 0030 1044     		add	r0, r0, r2
 1520              	.LVL179:
 382:Core/Src/NOS_Strip_UART.c **** 
 383:Core/Src/NOS_Strip_UART.c ****     return result;
 1521              		.loc 1 383 5 is_stmt 1 view .LVU507
 384:Core/Src/NOS_Strip_UART.c **** }
 1522              		.loc 1 384 1 is_stmt 0 view .LVU508
 1523 0032 C0B2     		uxtb	r0, r0
 1524              		.loc 1 384 1 view .LVU509
 1525 0034 7047     		bx	lr
 1526              	.LVL180:
 1527              	.L95:
 1528              	.LBB22:
 1529              	.LBB18:
 369:Core/Src/NOS_Strip_UART.c ****     }
 1530              		.loc 1 369 9 is_stmt 1 view .LVU510
 369:Core/Src/NOS_Strip_UART.c ****     }
 1531              		.loc 1 369 23 is_stmt 0 view .LVU511
 1532 0036 573A     		subs	r2, r2, #87
 1533              	.LVL181:
 369:Core/Src/NOS_Strip_UART.c ****     }
 1534              		.loc 1 369 23 view .LVU512
 1535 0038 D3B2     		uxtb	r3, r2
 1536 003a ECE7     		b	.L93
 1537              	.LVL182:
 1538              	.L96:
 369:Core/Src/NOS_Strip_UART.c ****     }
 1539              		.loc 1 369 23 view .LVU513
 1540              	.LBE18:
 1541              	.LBE22:
 1542              	.LBB23:
 1543              	.LBB21:
 369:Core/Src/NOS_Strip_UART.c ****     }
 1544              		.loc 1 369 9 is_stmt 1 view .LVU514
 369:Core/Src/NOS_Strip_UART.c ****     }
 1545              		.loc 1 369 23 is_stmt 0 view .LVU515
 1546 003c 5739     		subs	r1, r1, #87
 1547              	.LVL183:
 369:Core/Src/NOS_Strip_UART.c ****     }
 1548              		.loc 1 369 23 view .LVU516
 1549 003e CAB2     		uxtb	r2, r1
 1550 0040 F4E7     		b	.L94
ARM GAS  C:\Users\igorn\AppData\Local\Temp\cchFVsBM.s 			page 37


 1551              	.LBE21:
 1552              	.LBE23:
 1553              		.cfi_endproc
 1554              	.LFE136:
 1556              		.section	.text.getPixelColorFromString,"ax",%progbits
 1557              		.align	1
 1558              		.global	getPixelColorFromString
 1559              		.syntax unified
 1560              		.thumb
 1561              		.thumb_func
 1563              	getPixelColorFromString:
 1564              	.LVL184:
 1565              	.LFB137:
 385:Core/Src/NOS_Strip_UART.c **** 
 386:Core/Src/NOS_Strip_UART.c **** PixelColor getPixelColorFromString(char* message, int lenght)
 387:Core/Src/NOS_Strip_UART.c **** {
 1566              		.loc 1 387 1 is_stmt 1 view -0
 1567              		.cfi_startproc
 1568              		@ args = 0, pretend = 0, frame = 16
 1569              		@ frame_needed = 0, uses_anonymous_args = 0
 1570              		.loc 1 387 1 is_stmt 0 view .LVU518
 1571 0000 10B5     		push	{r4, lr}
 1572              		.cfi_def_cfa_offset 8
 1573              		.cfi_offset 4, -8
 1574              		.cfi_offset 14, -4
 1575 0002 84B0     		sub	sp, sp, #16
 1576              		.cfi_def_cfa_offset 24
 1577 0004 0446     		mov	r4, r0
 388:Core/Src/NOS_Strip_UART.c ****     PixelColor result = {0,0,0};
 1578              		.loc 1 388 5 is_stmt 1 view .LVU519
 1579              		.loc 1 388 16 is_stmt 0 view .LVU520
 1580 0006 0023     		movs	r3, #0
 1581 0008 8DF80830 		strb	r3, [sp, #8]
 1582 000c 8DF80930 		strb	r3, [sp, #9]
 1583 0010 8DF80A30 		strb	r3, [sp, #10]
 389:Core/Src/NOS_Strip_UART.c ****     char* ptr = message;
 1584              		.loc 1 389 5 is_stmt 1 view .LVU521
 1585              	.LVL185:
 390:Core/Src/NOS_Strip_UART.c **** 
 391:Core/Src/NOS_Strip_UART.c ****     if(lenght == 6)
 1586              		.loc 1 391 5 view .LVU522
 1587              		.loc 1 391 7 is_stmt 0 view .LVU523
 1588 0014 0629     		cmp	r1, #6
 1589 0016 0FD1     		bne	.L98
 392:Core/Src/NOS_Strip_UART.c ****     {
 393:Core/Src/NOS_Strip_UART.c ****         result.R = getHex(ptr);
 1590              		.loc 1 393 9 is_stmt 1 view .LVU524
 1591              		.loc 1 393 20 is_stmt 0 view .LVU525
 1592 0018 FFF7FEFF 		bl	getHex
 1593              	.LVL186:
 1594              		.loc 1 393 18 view .LVU526
 1595 001c 8DF80800 		strb	r0, [sp, #8]
 394:Core/Src/NOS_Strip_UART.c ****         ptr += 2;
 1596              		.loc 1 394 9 is_stmt 1 view .LVU527
 1597              	.LVL187:
 395:Core/Src/NOS_Strip_UART.c ****         result.G = getHex(ptr);
 1598              		.loc 1 395 9 view .LVU528
ARM GAS  C:\Users\igorn\AppData\Local\Temp\cchFVsBM.s 			page 38


 1599              		.loc 1 395 20 is_stmt 0 view .LVU529
 1600 0020 A01C     		adds	r0, r4, #2
 1601              	.LVL188:
 1602              		.loc 1 395 20 view .LVU530
 1603 0022 FFF7FEFF 		bl	getHex
 1604              	.LVL189:
 1605              		.loc 1 395 18 view .LVU531
 1606 0026 8DF80900 		strb	r0, [sp, #9]
 396:Core/Src/NOS_Strip_UART.c ****         ptr += 2;
 1607              		.loc 1 396 9 is_stmt 1 view .LVU532
 1608              	.LVL190:
 397:Core/Src/NOS_Strip_UART.c ****         result.B = getHex(ptr);
 1609              		.loc 1 397 9 view .LVU533
 1610              		.loc 1 397 20 is_stmt 0 view .LVU534
 1611 002a 201D     		adds	r0, r4, #4
 1612              	.LVL191:
 1613              		.loc 1 397 20 view .LVU535
 1614 002c FFF7FEFF 		bl	getHex
 1615              	.LVL192:
 1616              		.loc 1 397 18 view .LVU536
 1617 0030 8DF80A00 		strb	r0, [sp, #10]
 1618 0034 3CE0     		b	.L99
 1619              	.LVL193:
 1620              	.L100:
 1621              	.LBB24:
 398:Core/Src/NOS_Strip_UART.c ****     }
 399:Core/Src/NOS_Strip_UART.c ****     else
 400:Core/Src/NOS_Strip_UART.c ****     {
 401:Core/Src/NOS_Strip_UART.c ****         char digit1[3];
 402:Core/Src/NOS_Strip_UART.c ****         char digit2[3];
 403:Core/Src/NOS_Strip_UART.c ****         char digit3[3];
 404:Core/Src/NOS_Strip_UART.c ****         uint8_t subIndex = 0;
 405:Core/Src/NOS_Strip_UART.c **** 
 406:Core/Src/NOS_Strip_UART.c ****         //skip to (
 407:Core/Src/NOS_Strip_UART.c ****         while(*ptr != '(')
 408:Core/Src/NOS_Strip_UART.c ****         {
 409:Core/Src/NOS_Strip_UART.c ****             ptr++;
 1622              		.loc 1 409 13 is_stmt 1 view .LVU537
 1623              		.loc 1 409 16 is_stmt 0 view .LVU538
 1624 0036 0134     		adds	r4, r4, #1
 1625              	.LVL194:
 1626              	.L98:
 407:Core/Src/NOS_Strip_UART.c ****         {
 1627              		.loc 1 407 20 is_stmt 1 view .LVU539
 407:Core/Src/NOS_Strip_UART.c ****         {
 1628              		.loc 1 407 15 is_stmt 0 view .LVU540
 1629 0038 2378     		ldrb	r3, [r4]	@ zero_extendqisi2
 407:Core/Src/NOS_Strip_UART.c ****         {
 1630              		.loc 1 407 20 view .LVU541
 1631 003a 282B     		cmp	r3, #40
 1632 003c FBD1     		bne	.L100
 410:Core/Src/NOS_Strip_UART.c ****         }
 411:Core/Src/NOS_Strip_UART.c **** 
 412:Core/Src/NOS_Strip_UART.c ****         ptr++; //skip (
 1633              		.loc 1 412 9 is_stmt 1 view .LVU542
 1634              		.loc 1 412 12 is_stmt 0 view .LVU543
 1635 003e 0134     		adds	r4, r4, #1
ARM GAS  C:\Users\igorn\AppData\Local\Temp\cchFVsBM.s 			page 39


 1636              	.LVL195:
 413:Core/Src/NOS_Strip_UART.c **** 
 414:Core/Src/NOS_Strip_UART.c ****         while(*ptr != ',')
 1637              		.loc 1 414 9 is_stmt 1 view .LVU544
 404:Core/Src/NOS_Strip_UART.c **** 
 1638              		.loc 1 404 17 is_stmt 0 view .LVU545
 1639 0040 0021     		movs	r1, #0
 1640              	.LVL196:
 1641              		.loc 1 414 14 view .LVU546
 1642 0042 07E0     		b	.L101
 1643              	.LVL197:
 1644              	.L102:
 415:Core/Src/NOS_Strip_UART.c ****         {
 416:Core/Src/NOS_Strip_UART.c ****             digit1[subIndex] = *ptr;
 1645              		.loc 1 416 13 is_stmt 1 view .LVU547
 1646              		.loc 1 416 30 is_stmt 0 view .LVU548
 1647 0044 01F11002 		add	r2, r1, #16
 1648 0048 6A44     		add	r2, sp, r2
 1649 004a 02F80C3C 		strb	r3, [r2, #-12]
 417:Core/Src/NOS_Strip_UART.c ****             ptr++;
 1650              		.loc 1 417 13 is_stmt 1 view .LVU549
 1651              		.loc 1 417 16 is_stmt 0 view .LVU550
 1652 004e 0134     		adds	r4, r4, #1
 1653              	.LVL198:
 418:Core/Src/NOS_Strip_UART.c ****             subIndex++;
 1654              		.loc 1 418 13 is_stmt 1 view .LVU551
 1655              		.loc 1 418 21 is_stmt 0 view .LVU552
 1656 0050 0131     		adds	r1, r1, #1
 1657              	.LVL199:
 1658              		.loc 1 418 21 view .LVU553
 1659 0052 C9B2     		uxtb	r1, r1
 1660              	.LVL200:
 1661              	.L101:
 414:Core/Src/NOS_Strip_UART.c ****         {
 1662              		.loc 1 414 20 is_stmt 1 view .LVU554
 414:Core/Src/NOS_Strip_UART.c ****         {
 1663              		.loc 1 414 15 is_stmt 0 view .LVU555
 1664 0054 2378     		ldrb	r3, [r4]	@ zero_extendqisi2
 414:Core/Src/NOS_Strip_UART.c ****         {
 1665              		.loc 1 414 20 view .LVU556
 1666 0056 2C2B     		cmp	r3, #44
 1667 0058 F4D1     		bne	.L102
 419:Core/Src/NOS_Strip_UART.c ****         }
 420:Core/Src/NOS_Strip_UART.c **** 
 421:Core/Src/NOS_Strip_UART.c ****         result.R = getU16ParamFromString(digit1,subIndex);
 1668              		.loc 1 421 9 is_stmt 1 view .LVU557
 1669              		.loc 1 421 20 is_stmt 0 view .LVU558
 1670 005a 01A8     		add	r0, sp, #4
 1671              	.LVL201:
 1672              		.loc 1 421 20 view .LVU559
 1673 005c FFF7FEFF 		bl	getU16ParamFromString
 1674              	.LVL202:
 1675              		.loc 1 421 18 view .LVU560
 1676 0060 8DF80800 		strb	r0, [sp, #8]
 422:Core/Src/NOS_Strip_UART.c **** 
 423:Core/Src/NOS_Strip_UART.c ****         subIndex = 0;
 1677              		.loc 1 423 9 is_stmt 1 view .LVU561
ARM GAS  C:\Users\igorn\AppData\Local\Temp\cchFVsBM.s 			page 40


 1678              	.LVL203:
 424:Core/Src/NOS_Strip_UART.c ****         ptr++; //skip ,
 1679              		.loc 1 424 9 view .LVU562
 425:Core/Src/NOS_Strip_UART.c ****         ptr++; //skip space
 1680              		.loc 1 425 9 view .LVU563
 1681              		.loc 1 425 12 is_stmt 0 view .LVU564
 1682 0064 0234     		adds	r4, r4, #2
 1683              	.LVL204:
 426:Core/Src/NOS_Strip_UART.c **** 
 427:Core/Src/NOS_Strip_UART.c ****         while(*ptr != ',')
 1684              		.loc 1 427 9 is_stmt 1 view .LVU565
 423:Core/Src/NOS_Strip_UART.c ****         ptr++; //skip ,
 1685              		.loc 1 423 18 is_stmt 0 view .LVU566
 1686 0066 0021     		movs	r1, #0
 1687              		.loc 1 427 14 view .LVU567
 1688 0068 07E0     		b	.L103
 1689              	.LVL205:
 1690              	.L104:
 428:Core/Src/NOS_Strip_UART.c ****         {
 429:Core/Src/NOS_Strip_UART.c ****             digit1[subIndex] = *ptr;
 1691              		.loc 1 429 13 is_stmt 1 view .LVU568
 1692              		.loc 1 429 30 is_stmt 0 view .LVU569
 1693 006a 01F11002 		add	r2, r1, #16
 1694 006e 6A44     		add	r2, sp, r2
 1695 0070 02F80C3C 		strb	r3, [r2, #-12]
 430:Core/Src/NOS_Strip_UART.c ****             ptr++;
 1696              		.loc 1 430 13 is_stmt 1 view .LVU570
 1697              		.loc 1 430 16 is_stmt 0 view .LVU571
 1698 0074 0134     		adds	r4, r4, #1
 1699              	.LVL206:
 431:Core/Src/NOS_Strip_UART.c ****             subIndex++;
 1700              		.loc 1 431 13 is_stmt 1 view .LVU572
 1701              		.loc 1 431 21 is_stmt 0 view .LVU573
 1702 0076 0131     		adds	r1, r1, #1
 1703              	.LVL207:
 1704              		.loc 1 431 21 view .LVU574
 1705 0078 C9B2     		uxtb	r1, r1
 1706              	.LVL208:
 1707              	.L103:
 427:Core/Src/NOS_Strip_UART.c ****         {
 1708              		.loc 1 427 20 is_stmt 1 view .LVU575
 427:Core/Src/NOS_Strip_UART.c ****         {
 1709              		.loc 1 427 15 is_stmt 0 view .LVU576
 1710 007a 2378     		ldrb	r3, [r4]	@ zero_extendqisi2
 427:Core/Src/NOS_Strip_UART.c ****         {
 1711              		.loc 1 427 20 view .LVU577
 1712 007c 2C2B     		cmp	r3, #44
 1713 007e F4D1     		bne	.L104
 432:Core/Src/NOS_Strip_UART.c ****         }
 433:Core/Src/NOS_Strip_UART.c **** 
 434:Core/Src/NOS_Strip_UART.c ****         result.G = getU16ParamFromString(digit1,subIndex);
 1714              		.loc 1 434 9 is_stmt 1 view .LVU578
 1715              		.loc 1 434 20 is_stmt 0 view .LVU579
 1716 0080 01A8     		add	r0, sp, #4
 1717 0082 FFF7FEFF 		bl	getU16ParamFromString
 1718              	.LVL209:
 1719              		.loc 1 434 18 view .LVU580
ARM GAS  C:\Users\igorn\AppData\Local\Temp\cchFVsBM.s 			page 41


 1720 0086 8DF80900 		strb	r0, [sp, #9]
 435:Core/Src/NOS_Strip_UART.c **** 
 436:Core/Src/NOS_Strip_UART.c ****         subIndex = 0;
 1721              		.loc 1 436 9 is_stmt 1 view .LVU581
 1722              	.LVL210:
 437:Core/Src/NOS_Strip_UART.c ****         ptr++; //skip ,
 1723              		.loc 1 437 9 view .LVU582
 438:Core/Src/NOS_Strip_UART.c ****         ptr++; //skip space
 1724              		.loc 1 438 9 view .LVU583
 1725              		.loc 1 438 12 is_stmt 0 view .LVU584
 1726 008a 0234     		adds	r4, r4, #2
 1727              	.LVL211:
 439:Core/Src/NOS_Strip_UART.c **** 
 440:Core/Src/NOS_Strip_UART.c ****         while(*ptr != ',')
 1728              		.loc 1 440 9 is_stmt 1 view .LVU585
 436:Core/Src/NOS_Strip_UART.c ****         ptr++; //skip ,
 1729              		.loc 1 436 18 is_stmt 0 view .LVU586
 1730 008c 0021     		movs	r1, #0
 1731              		.loc 1 440 14 view .LVU587
 1732 008e 07E0     		b	.L105
 1733              	.LVL212:
 1734              	.L106:
 441:Core/Src/NOS_Strip_UART.c ****         {
 442:Core/Src/NOS_Strip_UART.c ****             digit1[subIndex] = *ptr;
 1735              		.loc 1 442 13 is_stmt 1 view .LVU588
 1736              		.loc 1 442 30 is_stmt 0 view .LVU589
 1737 0090 01F11002 		add	r2, r1, #16
 1738 0094 6A44     		add	r2, sp, r2
 1739 0096 02F80C3C 		strb	r3, [r2, #-12]
 443:Core/Src/NOS_Strip_UART.c ****             ptr++;
 1740              		.loc 1 443 13 is_stmt 1 view .LVU590
 1741              		.loc 1 443 16 is_stmt 0 view .LVU591
 1742 009a 0134     		adds	r4, r4, #1
 1743              	.LVL213:
 444:Core/Src/NOS_Strip_UART.c ****             subIndex++;
 1744              		.loc 1 444 13 is_stmt 1 view .LVU592
 1745              		.loc 1 444 21 is_stmt 0 view .LVU593
 1746 009c 0131     		adds	r1, r1, #1
 1747              	.LVL214:
 1748              		.loc 1 444 21 view .LVU594
 1749 009e C9B2     		uxtb	r1, r1
 1750              	.LVL215:
 1751              	.L105:
 440:Core/Src/NOS_Strip_UART.c ****         {
 1752              		.loc 1 440 20 is_stmt 1 view .LVU595
 440:Core/Src/NOS_Strip_UART.c ****         {
 1753              		.loc 1 440 15 is_stmt 0 view .LVU596
 1754 00a0 2378     		ldrb	r3, [r4]	@ zero_extendqisi2
 440:Core/Src/NOS_Strip_UART.c ****         {
 1755              		.loc 1 440 20 view .LVU597
 1756 00a2 2C2B     		cmp	r3, #44
 1757 00a4 F4D1     		bne	.L106
 445:Core/Src/NOS_Strip_UART.c ****         }
 446:Core/Src/NOS_Strip_UART.c **** 
 447:Core/Src/NOS_Strip_UART.c ****         result.B = getU16ParamFromString(digit1,subIndex);
 1758              		.loc 1 447 9 is_stmt 1 view .LVU598
 1759              		.loc 1 447 20 is_stmt 0 view .LVU599
ARM GAS  C:\Users\igorn\AppData\Local\Temp\cchFVsBM.s 			page 42


 1760 00a6 01A8     		add	r0, sp, #4
 1761 00a8 FFF7FEFF 		bl	getU16ParamFromString
 1762              	.LVL216:
 1763              		.loc 1 447 18 view .LVU600
 1764 00ac 8DF80A00 		strb	r0, [sp, #10]
 1765              	.LVL217:
 1766              	.L99:
 1767              		.loc 1 447 18 view .LVU601
 1768              	.LBE24:
 448:Core/Src/NOS_Strip_UART.c **** 
 449:Core/Src/NOS_Strip_UART.c ****     }
 450:Core/Src/NOS_Strip_UART.c **** 
 451:Core/Src/NOS_Strip_UART.c ****     return result;
 1769              		.loc 1 451 5 is_stmt 1 view .LVU602
 1770              		.loc 1 451 12 is_stmt 0 view .LVU603
 1771 00b0 029B     		ldr	r3, [sp, #8]
 1772 00b2 ADF80C30 		strh	r3, [sp, #12]	@ movhi
 1773 00b6 1B0C     		lsrs	r3, r3, #16
 1774 00b8 8DF80E30 		strb	r3, [sp, #14]
 1775 00bc 0020     		movs	r0, #0
 1776 00be 9DF80C30 		ldrb	r3, [sp, #12]	@ zero_extendqisi2
 1777 00c2 63F30700 		bfi	r0, r3, #0, #8
 1778 00c6 9DF80D30 		ldrb	r3, [sp, #13]	@ zero_extendqisi2
 1779 00ca 63F30F20 		bfi	r0, r3, #8, #8
 1780 00ce 9DF80E30 		ldrb	r3, [sp, #14]	@ zero_extendqisi2
 1781 00d2 63F31740 		bfi	r0, r3, #16, #8
 452:Core/Src/NOS_Strip_UART.c **** }
 1782              		.loc 1 452 1 view .LVU604
 1783 00d6 04B0     		add	sp, sp, #16
 1784              		.cfi_def_cfa_offset 8
 1785              		@ sp needed
 1786 00d8 10BD     		pop	{r4, pc}
 1787              		.cfi_endproc
 1788              	.LFE137:
 1790              		.section	.text.isEqualStrings,"ax",%progbits
 1791              		.align	1
 1792              		.global	isEqualStrings
 1793              		.syntax unified
 1794              		.thumb
 1795              		.thumb_func
 1797              	isEqualStrings:
 1798              	.LVL218:
 1799              	.LFB138:
 453:Core/Src/NOS_Strip_UART.c **** 
 454:Core/Src/NOS_Strip_UART.c **** bool isEqualStrings(char* message,const char* op,int startPos,int lenght)
 455:Core/Src/NOS_Strip_UART.c **** {
 1800              		.loc 1 455 1 is_stmt 1 view -0
 1801              		.cfi_startproc
 1802              		@ args = 0, pretend = 0, frame = 0
 1803              		@ frame_needed = 0, uses_anonymous_args = 0
 456:Core/Src/NOS_Strip_UART.c ****     for(int i = 0; i < lenght; i++)
 1804              		.loc 1 456 5 view .LVU606
 1805              	.LBB25:
 1806              		.loc 1 456 9 view .LVU607
 1807              		.loc 1 456 13 is_stmt 0 view .LVU608
 1808 0000 4FF0000C 		mov	ip, #0
 1809              	.LVL219:
ARM GAS  C:\Users\igorn\AppData\Local\Temp\cchFVsBM.s 			page 43


 1810              		.loc 1 456 22 is_stmt 1 view .LVU609
 1811 0004 9C45     		cmp	ip, r3
 1812 0006 0EDA     		bge	.L117
 1813              	.LBE25:
 455:Core/Src/NOS_Strip_UART.c ****     for(int i = 0; i < lenght; i++)
 1814              		.loc 1 455 1 is_stmt 0 view .LVU610
 1815 0008 10B5     		push	{r4, lr}
 1816              		.cfi_def_cfa_offset 8
 1817              		.cfi_offset 4, -8
 1818              		.cfi_offset 14, -4
 1819              	.L111:
 1820              	.LBB26:
 457:Core/Src/NOS_Strip_UART.c ****     {
 458:Core/Src/NOS_Strip_UART.c ****         if(message[startPos] == op[i])
 1821              		.loc 1 458 9 is_stmt 1 view .LVU611
 1822              		.loc 1 458 19 is_stmt 0 view .LVU612
 1823 000a 845C     		ldrb	r4, [r0, r2]	@ zero_extendqisi2
 1824              		.loc 1 458 30 view .LVU613
 1825 000c 11F80CE0 		ldrb	lr, [r1, ip]	@ zero_extendqisi2
 1826              		.loc 1 458 11 view .LVU614
 1827 0010 7445     		cmp	r4, lr
 1828 0012 06D1     		bne	.L112
 459:Core/Src/NOS_Strip_UART.c ****         {
 460:Core/Src/NOS_Strip_UART.c ****             startPos++;
 1829              		.loc 1 460 13 is_stmt 1 view .LVU615
 1830              		.loc 1 460 21 is_stmt 0 view .LVU616
 1831 0014 0132     		adds	r2, r2, #1
 1832              	.LVL220:
 456:Core/Src/NOS_Strip_UART.c ****     {
 1833              		.loc 1 456 33 is_stmt 1 view .LVU617
 1834 0016 0CF1010C 		add	ip, ip, #1
 1835              	.LVL221:
 456:Core/Src/NOS_Strip_UART.c ****     {
 1836              		.loc 1 456 22 view .LVU618
 1837 001a 9C45     		cmp	ip, r3
 1838 001c F5DB     		blt	.L111
 1839              	.LBE26:
 461:Core/Src/NOS_Strip_UART.c ****         }
 462:Core/Src/NOS_Strip_UART.c ****         else
 463:Core/Src/NOS_Strip_UART.c ****         {
 464:Core/Src/NOS_Strip_UART.c ****             return false;
 465:Core/Src/NOS_Strip_UART.c ****         }
 466:Core/Src/NOS_Strip_UART.c ****     }
 467:Core/Src/NOS_Strip_UART.c **** 
 468:Core/Src/NOS_Strip_UART.c ****     return true;
 1840              		.loc 1 468 12 is_stmt 0 view .LVU619
 1841 001e 0120     		movs	r0, #1
 1842              	.LVL222:
 1843              	.L110:
 469:Core/Src/NOS_Strip_UART.c **** }
 1844              		.loc 1 469 1 view .LVU620
 1845 0020 10BD     		pop	{r4, pc}
 1846              	.LVL223:
 1847              	.L112:
 1848              	.LBB27:
 464:Core/Src/NOS_Strip_UART.c ****         }
 1849              		.loc 1 464 20 view .LVU621
ARM GAS  C:\Users\igorn\AppData\Local\Temp\cchFVsBM.s 			page 44


 1850 0022 0020     		movs	r0, #0
 1851              	.LVL224:
 464:Core/Src/NOS_Strip_UART.c ****         }
 1852              		.loc 1 464 20 view .LVU622
 1853 0024 FCE7     		b	.L110
 1854              	.LVL225:
 1855              	.L117:
 1856              		.cfi_def_cfa_offset 0
 1857              		.cfi_restore 4
 1858              		.cfi_restore 14
 464:Core/Src/NOS_Strip_UART.c ****         }
 1859              		.loc 1 464 20 view .LVU623
 1860              	.LBE27:
 468:Core/Src/NOS_Strip_UART.c **** }
 1861              		.loc 1 468 12 view .LVU624
 1862 0026 0120     		movs	r0, #1
 1863              	.LVL226:
 1864              		.loc 1 469 1 view .LVU625
 1865 0028 7047     		bx	lr
 1866              		.cfi_endproc
 1867              	.LFE138:
 1869              		.section	.rodata.parseBreatheEffect.str1.4,"aMS",%progbits,1
 1870              		.align	2
 1871              	.LC0:
 1872 0000 74727565 		.ascii	"true\000"
 1872      00
 1873              		.section	.text.parseBreatheEffect,"ax",%progbits
 1874              		.align	1
 1875              		.global	parseBreatheEffect
 1876              		.syntax unified
 1877              		.thumb
 1878              		.thumb_func
 1880              	parseBreatheEffect:
 1881              	.LVL227:
 1882              	.LFB139:
 470:Core/Src/NOS_Strip_UART.c **** 
 471:Core/Src/NOS_Strip_UART.c **** #define EFFECTS_DIVIDER '&'
 472:Core/Src/NOS_Strip_UART.c **** #define PARAMS_DIVIDER '/'
 473:Core/Src/NOS_Strip_UART.c **** 
 474:Core/Src/NOS_Strip_UART.c **** Effect_Struct parseBreatheEffect(const char* message, int messageLenght)
 475:Core/Src/NOS_Strip_UART.c **** {
 1883              		.loc 1 475 1 is_stmt 1 view -0
 1884              		.cfi_startproc
 1885              		@ args = 0, pretend = 0, frame = 72
 1886              		@ frame_needed = 0, uses_anonymous_args = 0
 1887              		.loc 1 475 1 is_stmt 0 view .LVU627
 1888 0000 2DE9F043 		push	{r4, r5, r6, r7, r8, r9, lr}
 1889              		.cfi_def_cfa_offset 28
 1890              		.cfi_offset 4, -28
 1891              		.cfi_offset 5, -24
 1892              		.cfi_offset 6, -20
 1893              		.cfi_offset 7, -16
 1894              		.cfi_offset 8, -12
 1895              		.cfi_offset 9, -8
 1896              		.cfi_offset 14, -4
 1897 0004 9BB0     		sub	sp, sp, #108
 1898              		.cfi_def_cfa_offset 136
ARM GAS  C:\Users\igorn\AppData\Local\Temp\cchFVsBM.s 			page 45


 1899 0006 0546     		mov	r5, r0
 1900 0008 0E46     		mov	r6, r1
 476:Core/Src/NOS_Strip_UART.c ****     Effect_Struct result ;
 1901              		.loc 1 476 5 is_stmt 1 view .LVU628
 477:Core/Src/NOS_Strip_UART.c **** 
 478:Core/Src/NOS_Strip_UART.c ****     char* cPtr = message;
 1902              		.loc 1 478 5 view .LVU629
 1903              	.LVL228:
 479:Core/Src/NOS_Strip_UART.c **** 
 480:Core/Src/NOS_Strip_UART.c ****     char speedString[2];
 1904              		.loc 1 480 5 view .LVU630
 481:Core/Src/NOS_Strip_UART.c ****     char minString[2];
 1905              		.loc 1 481 5 view .LVU631
 482:Core/Src/NOS_Strip_UART.c ****     char maxString[2];
 1906              		.loc 1 482 5 view .LVU632
 483:Core/Src/NOS_Strip_UART.c ****     char enabledString[5];
 1907              		.loc 1 483 5 view .LVU633
 484:Core/Src/NOS_Strip_UART.c **** 
 485:Core/Src/NOS_Strip_UART.c ****     uint8_t paramsDividers[6];
 1908              		.loc 1 485 5 view .LVU634
 486:Core/Src/NOS_Strip_UART.c ****     uint8_t paramsCounter = 0;
 1909              		.loc 1 486 5 view .LVU635
 487:Core/Src/NOS_Strip_UART.c **** 
 488:Core/Src/NOS_Strip_UART.c ****     for(int i = 0; i < messageLenght; i++)
 1910              		.loc 1 488 5 view .LVU636
 1911              	.LBB28:
 1912              		.loc 1 488 9 view .LVU637
 1913              		.loc 1 488 9 is_stmt 0 view .LVU638
 1914              	.LBE28:
 478:Core/Src/NOS_Strip_UART.c **** 
 1915              		.loc 1 478 11 view .LVU639
 1916 000a 0C46     		mov	r4, r1
 1917              	.LBB29:
 1918              		.loc 1 488 13 view .LVU640
 1919 000c 0023     		movs	r3, #0
 1920              	.LBE29:
 486:Core/Src/NOS_Strip_UART.c ****     uint8_t paramsCounter = 0;
 1921              		.loc 1 486 13 view .LVU641
 1922 000e 1846     		mov	r0, r3
 1923              	.LVL229:
 1924              	.LBB30:
 1925              		.loc 1 488 5 view .LVU642
 1926 0010 01E0     		b	.L119
 1927              	.LVL230:
 1928              	.L120:
 489:Core/Src/NOS_Strip_UART.c ****     {
 490:Core/Src/NOS_Strip_UART.c ****         if(*cPtr == PARAMS_DIVIDER)
 491:Core/Src/NOS_Strip_UART.c ****         {
 492:Core/Src/NOS_Strip_UART.c ****             paramsDividers[paramsCounter] = i;
 493:Core/Src/NOS_Strip_UART.c **** 
 494:Core/Src/NOS_Strip_UART.c ****             paramsCounter++;
 495:Core/Src/NOS_Strip_UART.c ****         }
 496:Core/Src/NOS_Strip_UART.c ****         cPtr++;
 1929              		.loc 1 496 9 is_stmt 1 discriminator 2 view .LVU643
 1930              		.loc 1 496 13 is_stmt 0 discriminator 2 view .LVU644
 1931 0012 0134     		adds	r4, r4, #1
 1932              	.LVL231:
ARM GAS  C:\Users\igorn\AppData\Local\Temp\cchFVsBM.s 			page 46


 488:Core/Src/NOS_Strip_UART.c ****     {
 1933              		.loc 1 488 40 is_stmt 1 discriminator 2 view .LVU645
 1934 0014 0133     		adds	r3, r3, #1
 1935              	.LVL232:
 1936              	.L119:
 488:Core/Src/NOS_Strip_UART.c ****     {
 1937              		.loc 1 488 22 discriminator 1 view .LVU646
 1938 0016 9342     		cmp	r3, r2
 1939 0018 0ADA     		bge	.L131
 490:Core/Src/NOS_Strip_UART.c ****         {
 1940              		.loc 1 490 9 view .LVU647
 490:Core/Src/NOS_Strip_UART.c ****         {
 1941              		.loc 1 490 12 is_stmt 0 view .LVU648
 1942 001a 2178     		ldrb	r1, [r4]	@ zero_extendqisi2
 490:Core/Src/NOS_Strip_UART.c ****         {
 1943              		.loc 1 490 11 view .LVU649
 1944 001c 2F29     		cmp	r1, #47
 1945 001e F8D1     		bne	.L120
 492:Core/Src/NOS_Strip_UART.c **** 
 1946              		.loc 1 492 13 is_stmt 1 view .LVU650
 492:Core/Src/NOS_Strip_UART.c **** 
 1947              		.loc 1 492 43 is_stmt 0 view .LVU651
 1948 0020 00F16801 		add	r1, r0, #104
 1949 0024 6944     		add	r1, sp, r1
 1950 0026 01F8483C 		strb	r3, [r1, #-72]
 494:Core/Src/NOS_Strip_UART.c ****         }
 1951              		.loc 1 494 13 is_stmt 1 view .LVU652
 494:Core/Src/NOS_Strip_UART.c ****         }
 1952              		.loc 1 494 26 is_stmt 0 view .LVU653
 1953 002a 0130     		adds	r0, r0, #1
 1954              	.LVL233:
 494:Core/Src/NOS_Strip_UART.c ****         }
 1955              		.loc 1 494 26 view .LVU654
 1956 002c C0B2     		uxtb	r0, r0
 1957              	.LVL234:
 494:Core/Src/NOS_Strip_UART.c ****         }
 1958              		.loc 1 494 26 view .LVU655
 1959 002e F0E7     		b	.L120
 1960              	.L131:
 494:Core/Src/NOS_Strip_UART.c ****         }
 1961              		.loc 1 494 26 view .LVU656
 1962              	.LBE30:
 497:Core/Src/NOS_Strip_UART.c ****     }
 498:Core/Src/NOS_Strip_UART.c **** 
 499:Core/Src/NOS_Strip_UART.c ****     //speed param
 500:Core/Src/NOS_Strip_UART.c **** 
 501:Core/Src/NOS_Strip_UART.c ****     int subIndex = 0;
 1963              		.loc 1 501 5 is_stmt 1 view .LVU657
 1964              	.LVL235:
 502:Core/Src/NOS_Strip_UART.c ****     for(int index = paramsDividers[1] + 1; index < paramsDividers[2]; index++)
 1965              		.loc 1 502 5 view .LVU658
 1966              	.LBB31:
 1967              		.loc 1 502 9 view .LVU659
 1968              		.loc 1 502 35 is_stmt 0 view .LVU660
 1969 0030 9DF82130 		ldrb	r3, [sp, #33]	@ zero_extendqisi2
 1970              	.LVL236:
 1971              		.loc 1 502 13 view .LVU661
ARM GAS  C:\Users\igorn\AppData\Local\Temp\cchFVsBM.s 			page 47


 1972 0034 0133     		adds	r3, r3, #1
 1973              	.LVL237:
 1974              		.loc 1 502 13 view .LVU662
 1975              	.LBE31:
 501:Core/Src/NOS_Strip_UART.c ****     for(int index = paramsDividers[1] + 1; index < paramsDividers[2]; index++)
 1976              		.loc 1 501 9 view .LVU663
 1977 0036 0022     		movs	r2, #0
 1978              	.LVL238:
 1979              	.LBB32:
 1980              		.loc 1 502 5 view .LVU664
 1981 0038 07E0     		b	.L122
 1982              	.LVL239:
 1983              	.L123:
 503:Core/Src/NOS_Strip_UART.c ****     {
 504:Core/Src/NOS_Strip_UART.c ****         speedString[subIndex] = message[index];
 1984              		.loc 1 504 9 is_stmt 1 discriminator 3 view .LVU665
 1985              		.loc 1 504 40 is_stmt 0 discriminator 3 view .LVU666
 1986 003a F05C     		ldrb	r0, [r6, r3]	@ zero_extendqisi2
 1987              		.loc 1 504 31 discriminator 3 view .LVU667
 1988 003c 02F16801 		add	r1, r2, #104
 1989 0040 6944     		add	r1, sp, r1
 1990 0042 01F8300C 		strb	r0, [r1, #-48]
 505:Core/Src/NOS_Strip_UART.c ****         subIndex++;
 1991              		.loc 1 505 9 is_stmt 1 discriminator 3 view .LVU668
 1992              		.loc 1 505 17 is_stmt 0 discriminator 3 view .LVU669
 1993 0046 0132     		adds	r2, r2, #1
 1994              	.LVL240:
 502:Core/Src/NOS_Strip_UART.c ****     {
 1995              		.loc 1 502 76 is_stmt 1 discriminator 3 view .LVU670
 1996 0048 0133     		adds	r3, r3, #1
 1997              	.LVL241:
 1998              	.L122:
 502:Core/Src/NOS_Strip_UART.c ****     {
 1999              		.loc 1 502 50 discriminator 1 view .LVU671
 502:Core/Src/NOS_Strip_UART.c ****     {
 2000              		.loc 1 502 66 is_stmt 0 discriminator 1 view .LVU672
 2001 004a 9DF82240 		ldrb	r4, [sp, #34]	@ zero_extendqisi2
 502:Core/Src/NOS_Strip_UART.c ****     {
 2002              		.loc 1 502 50 discriminator 1 view .LVU673
 2003 004e 9C42     		cmp	r4, r3
 2004 0050 F3DC     		bgt	.L123
 502:Core/Src/NOS_Strip_UART.c ****     {
 2005              		.loc 1 502 50 discriminator 1 view .LVU674
 2006              	.LBE32:
 506:Core/Src/NOS_Strip_UART.c ****     }
 507:Core/Src/NOS_Strip_UART.c **** 
 508:Core/Src/NOS_Strip_UART.c ****     uint16_t speed = getU16ParamFromString(speedString,2);
 2007              		.loc 1 508 5 is_stmt 1 view .LVU675
 2008              		.loc 1 508 22 is_stmt 0 view .LVU676
 2009 0052 0221     		movs	r1, #2
 2010 0054 0EA8     		add	r0, sp, #56
 2011 0056 FFF7FEFF 		bl	getU16ParamFromString
 2012              	.LVL242:
 2013              		.loc 1 508 22 view .LVU677
 2014 005a 0746     		mov	r7, r0
 2015              	.LVL243:
 509:Core/Src/NOS_Strip_UART.c **** 
ARM GAS  C:\Users\igorn\AppData\Local\Temp\cchFVsBM.s 			page 48


 510:Core/Src/NOS_Strip_UART.c ****     //min param
 511:Core/Src/NOS_Strip_UART.c **** 
 512:Core/Src/NOS_Strip_UART.c ****     subIndex = 0;
 2016              		.loc 1 512 5 is_stmt 1 view .LVU678
 513:Core/Src/NOS_Strip_UART.c ****     for(int index = paramsDividers[2] + 1; index < paramsDividers[3]; index++)
 2017              		.loc 1 513 5 view .LVU679
 2018              	.LBB33:
 2019              		.loc 1 513 9 view .LVU680
 2020              		.loc 1 513 13 is_stmt 0 view .LVU681
 2021 005c 631C     		adds	r3, r4, #1
 2022              	.LVL244:
 2023              		.loc 1 513 13 view .LVU682
 2024              	.LBE33:
 512:Core/Src/NOS_Strip_UART.c ****     for(int index = paramsDividers[2] + 1; index < paramsDividers[3]; index++)
 2025              		.loc 1 512 14 view .LVU683
 2026 005e 0022     		movs	r2, #0
 2027              	.LBB34:
 2028              		.loc 1 513 5 view .LVU684
 2029 0060 07E0     		b	.L124
 2030              	.LVL245:
 2031              	.L125:
 514:Core/Src/NOS_Strip_UART.c ****     {
 515:Core/Src/NOS_Strip_UART.c ****         minString[subIndex] = message[index];
 2032              		.loc 1 515 9 is_stmt 1 discriminator 3 view .LVU685
 2033              		.loc 1 515 38 is_stmt 0 discriminator 3 view .LVU686
 2034 0062 F05C     		ldrb	r0, [r6, r3]	@ zero_extendqisi2
 2035              		.loc 1 515 29 discriminator 3 view .LVU687
 2036 0064 02F16801 		add	r1, r2, #104
 2037 0068 6944     		add	r1, sp, r1
 2038 006a 01F8340C 		strb	r0, [r1, #-52]
 516:Core/Src/NOS_Strip_UART.c ****         subIndex++;
 2039              		.loc 1 516 9 is_stmt 1 discriminator 3 view .LVU688
 2040              		.loc 1 516 17 is_stmt 0 discriminator 3 view .LVU689
 2041 006e 0132     		adds	r2, r2, #1
 2042              	.LVL246:
 513:Core/Src/NOS_Strip_UART.c ****     {
 2043              		.loc 1 513 76 is_stmt 1 discriminator 3 view .LVU690
 2044 0070 0133     		adds	r3, r3, #1
 2045              	.LVL247:
 2046              	.L124:
 513:Core/Src/NOS_Strip_UART.c ****     {
 2047              		.loc 1 513 50 discriminator 1 view .LVU691
 513:Core/Src/NOS_Strip_UART.c ****     {
 2048              		.loc 1 513 66 is_stmt 0 discriminator 1 view .LVU692
 2049 0072 9DF82340 		ldrb	r4, [sp, #35]	@ zero_extendqisi2
 513:Core/Src/NOS_Strip_UART.c ****     {
 2050              		.loc 1 513 50 discriminator 1 view .LVU693
 2051 0076 9C42     		cmp	r4, r3
 2052 0078 F3DC     		bgt	.L125
 513:Core/Src/NOS_Strip_UART.c ****     {
 2053              		.loc 1 513 50 discriminator 1 view .LVU694
 2054              	.LBE34:
 517:Core/Src/NOS_Strip_UART.c ****     }
 518:Core/Src/NOS_Strip_UART.c ****     
 519:Core/Src/NOS_Strip_UART.c ****     uint16_t min = getU16ParamFromString(minString,2);
 2055              		.loc 1 519 5 is_stmt 1 view .LVU695
 2056              		.loc 1 519 20 is_stmt 0 view .LVU696
ARM GAS  C:\Users\igorn\AppData\Local\Temp\cchFVsBM.s 			page 49


 2057 007a 0221     		movs	r1, #2
 2058 007c 0DA8     		add	r0, sp, #52
 2059 007e FFF7FEFF 		bl	getU16ParamFromString
 2060              	.LVL248:
 2061              		.loc 1 519 20 view .LVU697
 2062 0082 8046     		mov	r8, r0
 2063              	.LVL249:
 520:Core/Src/NOS_Strip_UART.c **** 
 521:Core/Src/NOS_Strip_UART.c ****     //max param
 522:Core/Src/NOS_Strip_UART.c **** 
 523:Core/Src/NOS_Strip_UART.c ****     subIndex = 0;
 2064              		.loc 1 523 5 is_stmt 1 view .LVU698
 524:Core/Src/NOS_Strip_UART.c ****     for(int index = paramsDividers[3] + 1; index < paramsDividers[4]; index++)
 2065              		.loc 1 524 5 view .LVU699
 2066              	.LBB35:
 2067              		.loc 1 524 9 view .LVU700
 2068              		.loc 1 524 13 is_stmt 0 view .LVU701
 2069 0084 631C     		adds	r3, r4, #1
 2070              	.LVL250:
 2071              		.loc 1 524 13 view .LVU702
 2072              	.LBE35:
 523:Core/Src/NOS_Strip_UART.c ****     for(int index = paramsDividers[3] + 1; index < paramsDividers[4]; index++)
 2073              		.loc 1 523 14 view .LVU703
 2074 0086 0022     		movs	r2, #0
 2075              	.LBB36:
 2076              		.loc 1 524 5 view .LVU704
 2077 0088 07E0     		b	.L126
 2078              	.LVL251:
 2079              	.L127:
 525:Core/Src/NOS_Strip_UART.c ****     {
 526:Core/Src/NOS_Strip_UART.c ****         maxString[subIndex] = message[index];
 2080              		.loc 1 526 9 is_stmt 1 discriminator 3 view .LVU705
 2081              		.loc 1 526 38 is_stmt 0 discriminator 3 view .LVU706
 2082 008a F05C     		ldrb	r0, [r6, r3]	@ zero_extendqisi2
 2083              		.loc 1 526 29 discriminator 3 view .LVU707
 2084 008c 02F16801 		add	r1, r2, #104
 2085 0090 6944     		add	r1, sp, r1
 2086 0092 01F8380C 		strb	r0, [r1, #-56]
 527:Core/Src/NOS_Strip_UART.c ****         subIndex++;
 2087              		.loc 1 527 9 is_stmt 1 discriminator 3 view .LVU708
 2088              		.loc 1 527 17 is_stmt 0 discriminator 3 view .LVU709
 2089 0096 0132     		adds	r2, r2, #1
 2090              	.LVL252:
 524:Core/Src/NOS_Strip_UART.c ****     {
 2091              		.loc 1 524 76 is_stmt 1 discriminator 3 view .LVU710
 2092 0098 0133     		adds	r3, r3, #1
 2093              	.LVL253:
 2094              	.L126:
 524:Core/Src/NOS_Strip_UART.c ****     {
 2095              		.loc 1 524 50 discriminator 1 view .LVU711
 524:Core/Src/NOS_Strip_UART.c ****     {
 2096              		.loc 1 524 66 is_stmt 0 discriminator 1 view .LVU712
 2097 009a 9DF82440 		ldrb	r4, [sp, #36]	@ zero_extendqisi2
 524:Core/Src/NOS_Strip_UART.c ****     {
 2098              		.loc 1 524 50 discriminator 1 view .LVU713
 2099 009e 9C42     		cmp	r4, r3
 2100 00a0 F3DC     		bgt	.L127
ARM GAS  C:\Users\igorn\AppData\Local\Temp\cchFVsBM.s 			page 50


 524:Core/Src/NOS_Strip_UART.c ****     {
 2101              		.loc 1 524 50 discriminator 1 view .LVU714
 2102              	.LBE36:
 528:Core/Src/NOS_Strip_UART.c ****     }
 529:Core/Src/NOS_Strip_UART.c ****     
 530:Core/Src/NOS_Strip_UART.c ****     uint16_t max = getU16ParamFromString(maxString,2);
 2103              		.loc 1 530 5 is_stmt 1 view .LVU715
 2104              		.loc 1 530 20 is_stmt 0 view .LVU716
 2105 00a2 0221     		movs	r1, #2
 2106 00a4 0CA8     		add	r0, sp, #48
 2107 00a6 FFF7FEFF 		bl	getU16ParamFromString
 2108              	.LVL254:
 2109              		.loc 1 530 20 view .LVU717
 2110 00aa 8146     		mov	r9, r0
 2111              	.LVL255:
 531:Core/Src/NOS_Strip_UART.c **** 
 532:Core/Src/NOS_Strip_UART.c ****     //enabled param
 533:Core/Src/NOS_Strip_UART.c **** 
 534:Core/Src/NOS_Strip_UART.c ****     subIndex = 0;
 2112              		.loc 1 534 5 is_stmt 1 view .LVU718
 535:Core/Src/NOS_Strip_UART.c ****     for(int index = paramsDividers[4] + 1; index < paramsDividers[5]; index++)
 2113              		.loc 1 535 5 view .LVU719
 2114              	.LBB37:
 2115              		.loc 1 535 9 view .LVU720
 2116              		.loc 1 535 13 is_stmt 0 view .LVU721
 2117 00ac 631C     		adds	r3, r4, #1
 2118              	.LVL256:
 2119              		.loc 1 535 13 view .LVU722
 2120              	.LBE37:
 534:Core/Src/NOS_Strip_UART.c ****     for(int index = paramsDividers[4] + 1; index < paramsDividers[5]; index++)
 2121              		.loc 1 534 14 view .LVU723
 2122 00ae 0022     		movs	r2, #0
 2123              	.LBB38:
 2124              		.loc 1 535 5 view .LVU724
 2125 00b0 07E0     		b	.L128
 2126              	.LVL257:
 2127              	.L129:
 536:Core/Src/NOS_Strip_UART.c ****     {
 537:Core/Src/NOS_Strip_UART.c ****         enabledString[subIndex] = message[index];
 2128              		.loc 1 537 9 is_stmt 1 discriminator 3 view .LVU725
 2129              		.loc 1 537 42 is_stmt 0 discriminator 3 view .LVU726
 2130 00b2 F05C     		ldrb	r0, [r6, r3]	@ zero_extendqisi2
 2131              		.loc 1 537 33 discriminator 3 view .LVU727
 2132 00b4 02F16801 		add	r1, r2, #104
 2133 00b8 6944     		add	r1, sp, r1
 2134 00ba 01F8400C 		strb	r0, [r1, #-64]
 538:Core/Src/NOS_Strip_UART.c ****         subIndex++;
 2135              		.loc 1 538 9 is_stmt 1 discriminator 3 view .LVU728
 2136              		.loc 1 538 17 is_stmt 0 discriminator 3 view .LVU729
 2137 00be 0132     		adds	r2, r2, #1
 2138              	.LVL258:
 535:Core/Src/NOS_Strip_UART.c ****     {
 2139              		.loc 1 535 76 is_stmt 1 discriminator 3 view .LVU730
 2140 00c0 0133     		adds	r3, r3, #1
 2141              	.LVL259:
 2142              	.L128:
 535:Core/Src/NOS_Strip_UART.c ****     {
ARM GAS  C:\Users\igorn\AppData\Local\Temp\cchFVsBM.s 			page 51


 2143              		.loc 1 535 50 discriminator 1 view .LVU731
 535:Core/Src/NOS_Strip_UART.c ****     {
 2144              		.loc 1 535 66 is_stmt 0 discriminator 1 view .LVU732
 2145 00c2 9DF82510 		ldrb	r1, [sp, #37]	@ zero_extendqisi2
 535:Core/Src/NOS_Strip_UART.c ****     {
 2146              		.loc 1 535 50 discriminator 1 view .LVU733
 2147 00c6 9942     		cmp	r1, r3
 2148 00c8 F3DC     		bgt	.L129
 535:Core/Src/NOS_Strip_UART.c ****     {
 2149              		.loc 1 535 50 discriminator 1 view .LVU734
 2150              	.LBE38:
 539:Core/Src/NOS_Strip_UART.c ****     }
 540:Core/Src/NOS_Strip_UART.c ****     
 541:Core/Src/NOS_Strip_UART.c ****     bool enabled = false;
 2151              		.loc 1 541 5 is_stmt 1 view .LVU735
 2152              	.LVL260:
 542:Core/Src/NOS_Strip_UART.c ****     if(isEqualStrings(enabledString,"true",0,4))
 2153              		.loc 1 542 5 view .LVU736
 2154              		.loc 1 542 8 is_stmt 0 view .LVU737
 2155 00ca 0423     		movs	r3, #4
 2156              	.LVL261:
 2157              		.loc 1 542 8 view .LVU738
 2158 00cc 0022     		movs	r2, #0
 2159              	.LVL262:
 2160              		.loc 1 542 8 view .LVU739
 2161 00ce 1149     		ldr	r1, .L132
 2162 00d0 0AA8     		add	r0, sp, #40
 2163 00d2 FFF7FEFF 		bl	isEqualStrings
 2164              	.LVL263:
 543:Core/Src/NOS_Strip_UART.c ****     {
 544:Core/Src/NOS_Strip_UART.c ****         enabled = true;
 545:Core/Src/NOS_Strip_UART.c ****     }
 546:Core/Src/NOS_Strip_UART.c **** 
 547:Core/Src/NOS_Strip_UART.c ****     NOS_WS2812B_Strip_Effect_Init(&result,NULL,speed,1,min,max,0,0,0,0,EFFECT_BREATHE_ID,enabled);
 2165              		.loc 1 547 5 is_stmt 1 view .LVU740
 2166 00d6 0790     		str	r0, [sp, #28]
 2167 00d8 2023     		movs	r3, #32
 2168 00da 0693     		str	r3, [sp, #24]
 2169 00dc 0021     		movs	r1, #0
 2170 00de 0591     		str	r1, [sp, #20]
 2171 00e0 0491     		str	r1, [sp, #16]
 2172 00e2 0391     		str	r1, [sp, #12]
 2173 00e4 0291     		str	r1, [sp, #8]
 2174 00e6 CDF80490 		str	r9, [sp, #4]
 2175 00ea CDF80080 		str	r8, [sp]
 2176 00ee 0123     		movs	r3, #1
 2177 00f0 3A46     		mov	r2, r7
 2178 00f2 0FA8     		add	r0, sp, #60
 2179              	.LVL264:
 2180              		.loc 1 547 5 is_stmt 0 view .LVU741
 2181 00f4 FFF7FEFF 		bl	NOS_WS2812B_Strip_Effect_Init
 2182              	.LVL265:
 548:Core/Src/NOS_Strip_UART.c **** 
 549:Core/Src/NOS_Strip_UART.c ****     return result;
 2183              		.loc 1 549 5 is_stmt 1 view .LVU742
 2184              		.loc 1 549 12 is_stmt 0 view .LVU743
 2185 00f8 2E46     		mov	r6, r5
ARM GAS  C:\Users\igorn\AppData\Local\Temp\cchFVsBM.s 			page 52


 2186              	.LVL266:
 2187              		.loc 1 549 12 view .LVU744
 2188 00fa 0FAC     		add	r4, sp, #60
 2189 00fc 0FCC     		ldmia	r4!, {r0, r1, r2, r3}
 2190 00fe 0FC6     		stmia	r6!, {r0, r1, r2, r3}
 2191 0100 0FCC     		ldmia	r4!, {r0, r1, r2, r3}
 2192 0102 0FC6     		stmia	r6!, {r0, r1, r2, r3}
 2193 0104 94E80700 		ldm	r4, {r0, r1, r2}
 2194 0108 86E80700 		stm	r6, {r0, r1, r2}
 550:Core/Src/NOS_Strip_UART.c ****             
 551:Core/Src/NOS_Strip_UART.c **** }
 2195              		.loc 1 551 1 view .LVU745
 2196 010c 2846     		mov	r0, r5
 2197 010e 1BB0     		add	sp, sp, #108
 2198              		.cfi_def_cfa_offset 28
 2199              		@ sp needed
 2200 0110 BDE8F083 		pop	{r4, r5, r6, r7, r8, r9, pc}
 2201              	.LVL267:
 2202              	.L133:
 2203              		.loc 1 551 1 view .LVU746
 2204              		.align	2
 2205              	.L132:
 2206 0114 00000000 		.word	.LC0
 2207              		.cfi_endproc
 2208              	.LFE139:
 2210              		.section	.text.NOS_Strip_UART_ParseStringCommandTest,"ax",%progbits
 2211              		.align	1
 2212              		.global	NOS_Strip_UART_ParseStringCommandTest
 2213              		.syntax unified
 2214              		.thumb
 2215              		.thumb_func
 2217              	NOS_Strip_UART_ParseStringCommandTest:
 2218              	.LVL268:
 2219              	.LFB140:
 552:Core/Src/NOS_Strip_UART.c **** 
 553:Core/Src/NOS_Strip_UART.c **** bool NOS_Strip_UART_ParseStringCommandTest(WS2812B_Strip* strip,const char* message, int messageLen
 554:Core/Src/NOS_Strip_UART.c **** {
 2220              		.loc 1 554 1 is_stmt 1 view -0
 2221              		.cfi_startproc
 2222              		@ args = 0, pretend = 0, frame = 272
 2223              		@ frame_needed = 0, uses_anonymous_args = 0
 2224              		.loc 1 554 1 is_stmt 0 view .LVU748
 2225 0000 30B5     		push	{r4, r5, lr}
 2226              		.cfi_def_cfa_offset 12
 2227              		.cfi_offset 4, -12
 2228              		.cfi_offset 5, -8
 2229              		.cfi_offset 14, -4
 2230 0002 C5B0     		sub	sp, sp, #276
 2231              		.cfi_def_cfa_offset 288
 2232 0004 0D46     		mov	r5, r1
 555:Core/Src/NOS_Strip_UART.c ****     /*Parse to individual effect strings*/
 556:Core/Src/NOS_Strip_UART.c ****     char breatheString[32];
 2233              		.loc 1 556 5 is_stmt 1 view .LVU749
 557:Core/Src/NOS_Strip_UART.c ****     char rainbowString[64];
 2234              		.loc 1 557 5 view .LVU750
 558:Core/Src/NOS_Strip_UART.c ****     char dotsString[32];
 2235              		.loc 1 558 5 view .LVU751
ARM GAS  C:\Users\igorn\AppData\Local\Temp\cchFVsBM.s 			page 53


 559:Core/Src/NOS_Strip_UART.c ****     char walkingString[32];
 2236              		.loc 1 559 5 view .LVU752
 560:Core/Src/NOS_Strip_UART.c ****     char steadyString[32];
 2237              		.loc 1 560 5 view .LVU753
 561:Core/Src/NOS_Strip_UART.c **** 
 562:Core/Src/NOS_Strip_UART.c ****     int effectDividers[8];
 2238              		.loc 1 562 5 view .LVU754
 563:Core/Src/NOS_Strip_UART.c **** 
 564:Core/Src/NOS_Strip_UART.c ****     char* cPtr = message;
 2239              		.loc 1 564 5 view .LVU755
 2240              	.LVL269:
 565:Core/Src/NOS_Strip_UART.c ****     uint8_t dividerCounter = 0;
 2241              		.loc 1 565 5 view .LVU756
 566:Core/Src/NOS_Strip_UART.c **** 
 567:Core/Src/NOS_Strip_UART.c ****     //finding indexes of Effect dividers
 568:Core/Src/NOS_Strip_UART.c ****     for(int i = 0; i < messageLenght; i++)
 2242              		.loc 1 568 5 view .LVU757
 2243              	.LBB39:
 2244              		.loc 1 568 9 view .LVU758
 2245              		.loc 1 568 13 is_stmt 0 view .LVU759
 2246 0006 0023     		movs	r3, #0
 2247              	.LBE39:
 565:Core/Src/NOS_Strip_UART.c ****     uint8_t dividerCounter = 0;
 2248              		.loc 1 565 13 view .LVU760
 2249 0008 1C46     		mov	r4, r3
 2250              	.LBB40:
 2251              		.loc 1 568 5 view .LVU761
 2252 000a 01E0     		b	.L135
 2253              	.LVL270:
 2254              	.L136:
 569:Core/Src/NOS_Strip_UART.c ****     {
 570:Core/Src/NOS_Strip_UART.c ****         if(*cPtr == EFFECTS_DIVIDER)
 571:Core/Src/NOS_Strip_UART.c ****         {
 572:Core/Src/NOS_Strip_UART.c ****             effectDividers[dividerCounter] = i; 
 573:Core/Src/NOS_Strip_UART.c ****             dividerCounter++;
 574:Core/Src/NOS_Strip_UART.c ****         }
 575:Core/Src/NOS_Strip_UART.c ****         cPtr++;
 2255              		.loc 1 575 9 is_stmt 1 discriminator 2 view .LVU762
 2256              		.loc 1 575 13 is_stmt 0 discriminator 2 view .LVU763
 2257 000c 0131     		adds	r1, r1, #1
 2258              	.LVL271:
 568:Core/Src/NOS_Strip_UART.c ****     {
 2259              		.loc 1 568 40 is_stmt 1 discriminator 2 view .LVU764
 2260 000e 0133     		adds	r3, r3, #1
 2261              	.LVL272:
 2262              	.L135:
 568:Core/Src/NOS_Strip_UART.c ****     {
 2263              		.loc 1 568 22 discriminator 1 view .LVU765
 2264 0010 9342     		cmp	r3, r2
 2265 0012 0ADA     		bge	.L149
 570:Core/Src/NOS_Strip_UART.c ****         {
 2266              		.loc 1 570 9 view .LVU766
 570:Core/Src/NOS_Strip_UART.c ****         {
 2267              		.loc 1 570 12 is_stmt 0 view .LVU767
 2268 0014 0878     		ldrb	r0, [r1]	@ zero_extendqisi2
 570:Core/Src/NOS_Strip_UART.c ****         {
 2269              		.loc 1 570 11 view .LVU768
ARM GAS  C:\Users\igorn\AppData\Local\Temp\cchFVsBM.s 			page 54


 2270 0016 2628     		cmp	r0, #38
 2271 0018 F8D1     		bne	.L136
 572:Core/Src/NOS_Strip_UART.c ****             dividerCounter++;
 2272              		.loc 1 572 13 is_stmt 1 view .LVU769
 572:Core/Src/NOS_Strip_UART.c ****             dividerCounter++;
 2273              		.loc 1 572 44 is_stmt 0 view .LVU770
 2274 001a 44A8     		add	r0, sp, #272
 2275 001c 00EB8400 		add	r0, r0, r4, lsl #2
 2276 0020 40F8E03C 		str	r3, [r0, #-224]
 573:Core/Src/NOS_Strip_UART.c ****         }
 2277              		.loc 1 573 13 is_stmt 1 view .LVU771
 573:Core/Src/NOS_Strip_UART.c ****         }
 2278              		.loc 1 573 27 is_stmt 0 view .LVU772
 2279 0024 0134     		adds	r4, r4, #1
 2280              	.LVL273:
 573:Core/Src/NOS_Strip_UART.c ****         }
 2281              		.loc 1 573 27 view .LVU773
 2282 0026 E4B2     		uxtb	r4, r4
 2283              	.LVL274:
 573:Core/Src/NOS_Strip_UART.c ****         }
 2284              		.loc 1 573 27 view .LVU774
 2285 0028 F0E7     		b	.L136
 2286              	.L149:
 573:Core/Src/NOS_Strip_UART.c ****         }
 2287              		.loc 1 573 27 view .LVU775
 2288              	.LBE40:
 576:Core/Src/NOS_Strip_UART.c ****     }
 577:Core/Src/NOS_Strip_UART.c **** 
 578:Core/Src/NOS_Strip_UART.c ****     uint8_t subIndex = 0;
 2289              		.loc 1 578 5 is_stmt 1 view .LVU776
 2290              	.LVL275:
 579:Core/Src/NOS_Strip_UART.c ****     for(int i = effectDividers[0]; i < effectDividers[1]; i++)
 2291              		.loc 1 579 5 view .LVU777
 2292              	.LBB41:
 2293              		.loc 1 579 9 view .LVU778
 2294              		.loc 1 579 13 is_stmt 0 view .LVU779
 2295 002a 0C9B     		ldr	r3, [sp, #48]
 2296              	.LVL276:
 2297              		.loc 1 579 13 view .LVU780
 2298              	.LBE41:
 578:Core/Src/NOS_Strip_UART.c ****     for(int i = effectDividers[0]; i < effectDividers[1]; i++)
 2299              		.loc 1 578 13 view .LVU781
 2300 002c 0022     		movs	r2, #0
 2301              	.LVL277:
 2302              	.LBB42:
 2303              		.loc 1 579 5 view .LVU782
 2304 002e 08E0     		b	.L138
 2305              	.LVL278:
 2306              	.L139:
 580:Core/Src/NOS_Strip_UART.c ****     {
 581:Core/Src/NOS_Strip_UART.c ****         breatheString[subIndex] = message[i];
 2307              		.loc 1 581 9 is_stmt 1 discriminator 3 view .LVU783
 2308              		.loc 1 581 42 is_stmt 0 discriminator 3 view .LVU784
 2309 0030 E85C     		ldrb	r0, [r5, r3]	@ zero_extendqisi2
 2310              		.loc 1 581 33 discriminator 3 view .LVU785
 2311 0032 02F58871 		add	r1, r2, #272
 2312 0036 6944     		add	r1, sp, r1
ARM GAS  C:\Users\igorn\AppData\Local\Temp\cchFVsBM.s 			page 55


 2313 0038 01F8200C 		strb	r0, [r1, #-32]
 582:Core/Src/NOS_Strip_UART.c ****         subIndex++;
 2314              		.loc 1 582 9 is_stmt 1 discriminator 3 view .LVU786
 2315              		.loc 1 582 17 is_stmt 0 discriminator 3 view .LVU787
 2316 003c 0132     		adds	r2, r2, #1
 2317              	.LVL279:
 2318              		.loc 1 582 17 discriminator 3 view .LVU788
 2319 003e D2B2     		uxtb	r2, r2
 2320              	.LVL280:
 579:Core/Src/NOS_Strip_UART.c ****     {
 2321              		.loc 1 579 60 is_stmt 1 discriminator 3 view .LVU789
 2322 0040 0133     		adds	r3, r3, #1
 2323              	.LVL281:
 2324              	.L138:
 579:Core/Src/NOS_Strip_UART.c ****     {
 2325              		.loc 1 579 38 discriminator 1 view .LVU790
 579:Core/Src/NOS_Strip_UART.c ****     {
 2326              		.loc 1 579 54 is_stmt 0 discriminator 1 view .LVU791
 2327 0042 0D9C     		ldr	r4, [sp, #52]
 579:Core/Src/NOS_Strip_UART.c ****     {
 2328              		.loc 1 579 38 discriminator 1 view .LVU792
 2329 0044 9C42     		cmp	r4, r3
 2330 0046 F3DC     		bgt	.L139
 579:Core/Src/NOS_Strip_UART.c ****     {
 2331              		.loc 1 579 38 discriminator 1 view .LVU793
 2332              	.LBE42:
 583:Core/Src/NOS_Strip_UART.c ****     }
 584:Core/Src/NOS_Strip_UART.c **** 
 585:Core/Src/NOS_Strip_UART.c ****     Effect_Struct effect = parseBreatheEffect(breatheString,subIndex);
 2333              		.loc 1 585 5 is_stmt 1 view .LVU794
 2334              		.loc 1 585 28 is_stmt 0 view .LVU795
 2335 0048 3CA9     		add	r1, sp, #240
 2336 004a 01A8     		add	r0, sp, #4
 2337 004c FFF7FEFF 		bl	parseBreatheEffect
 2338              	.LVL282:
 586:Core/Src/NOS_Strip_UART.c **** 
 587:Core/Src/NOS_Strip_UART.c ****     subIndex = 0;
 2339              		.loc 1 587 5 is_stmt 1 view .LVU796
 588:Core/Src/NOS_Strip_UART.c ****     for(int i = effectDividers[1]; i < effectDividers[2]; i++)
 2340              		.loc 1 588 5 view .LVU797
 2341              	.LBB43:
 2342              		.loc 1 588 9 view .LVU798
 2343              		.loc 1 588 9 is_stmt 0 view .LVU799
 2344              	.LBE43:
 587:Core/Src/NOS_Strip_UART.c ****     for(int i = effectDividers[1]; i < effectDividers[2]; i++)
 2345              		.loc 1 587 14 view .LVU800
 2346 0050 0022     		movs	r2, #0
 2347              	.LBB44:
 2348              		.loc 1 588 5 view .LVU801
 2349 0052 08E0     		b	.L140
 2350              	.LVL283:
 2351              	.L141:
 589:Core/Src/NOS_Strip_UART.c ****     {
 590:Core/Src/NOS_Strip_UART.c ****         rainbowString[subIndex] = message[i];
 2352              		.loc 1 590 9 is_stmt 1 discriminator 3 view .LVU802
 2353              		.loc 1 590 42 is_stmt 0 discriminator 3 view .LVU803
 2354 0054 295D     		ldrb	r1, [r5, r4]	@ zero_extendqisi2
ARM GAS  C:\Users\igorn\AppData\Local\Temp\cchFVsBM.s 			page 56


 2355              		.loc 1 590 33 discriminator 3 view .LVU804
 2356 0056 02F58873 		add	r3, r2, #272
 2357 005a 6B44     		add	r3, sp, r3
 2358 005c 03F8601C 		strb	r1, [r3, #-96]
 591:Core/Src/NOS_Strip_UART.c ****         subIndex++;
 2359              		.loc 1 591 9 is_stmt 1 discriminator 3 view .LVU805
 2360              		.loc 1 591 17 is_stmt 0 discriminator 3 view .LVU806
 2361 0060 0132     		adds	r2, r2, #1
 2362              	.LVL284:
 2363              		.loc 1 591 17 discriminator 3 view .LVU807
 2364 0062 D2B2     		uxtb	r2, r2
 2365              	.LVL285:
 588:Core/Src/NOS_Strip_UART.c ****     {
 2366              		.loc 1 588 60 is_stmt 1 discriminator 3 view .LVU808
 2367 0064 0134     		adds	r4, r4, #1
 2368              	.LVL286:
 2369              	.L140:
 588:Core/Src/NOS_Strip_UART.c ****     {
 2370              		.loc 1 588 38 discriminator 1 view .LVU809
 588:Core/Src/NOS_Strip_UART.c ****     {
 2371              		.loc 1 588 54 is_stmt 0 discriminator 1 view .LVU810
 2372 0066 0E9B     		ldr	r3, [sp, #56]
 588:Core/Src/NOS_Strip_UART.c ****     {
 2373              		.loc 1 588 38 discriminator 1 view .LVU811
 2374 0068 A342     		cmp	r3, r4
 2375 006a F3DC     		bgt	.L141
 588:Core/Src/NOS_Strip_UART.c ****     {
 2376              		.loc 1 588 38 discriminator 1 view .LVU812
 2377              	.LBE44:
 592:Core/Src/NOS_Strip_UART.c ****     }
 593:Core/Src/NOS_Strip_UART.c **** 
 594:Core/Src/NOS_Strip_UART.c ****     subIndex = 0;
 2378              		.loc 1 594 14 view .LVU813
 2379 006c 0021     		movs	r1, #0
 2380 006e 08E0     		b	.L142
 2381              	.LVL287:
 2382              	.L143:
 2383              	.LBB45:
 595:Core/Src/NOS_Strip_UART.c ****     for(int i = effectDividers[2]; i < effectDividers[3]; i++)
 596:Core/Src/NOS_Strip_UART.c ****     {
 597:Core/Src/NOS_Strip_UART.c ****         dotsString[subIndex] = message[i];
 2384              		.loc 1 597 9 is_stmt 1 discriminator 3 view .LVU814
 2385              		.loc 1 597 39 is_stmt 0 discriminator 3 view .LVU815
 2386 0070 E85C     		ldrb	r0, [r5, r3]	@ zero_extendqisi2
 2387              		.loc 1 597 30 discriminator 3 view .LVU816
 2388 0072 01F58872 		add	r2, r1, #272
 2389 0076 6A44     		add	r2, sp, r2
 2390 0078 02F8800C 		strb	r0, [r2, #-128]
 598:Core/Src/NOS_Strip_UART.c ****         subIndex++;
 2391              		.loc 1 598 9 is_stmt 1 discriminator 3 view .LVU817
 2392              		.loc 1 598 17 is_stmt 0 discriminator 3 view .LVU818
 2393 007c 0131     		adds	r1, r1, #1
 2394              	.LVL288:
 2395              		.loc 1 598 17 discriminator 3 view .LVU819
 2396 007e C9B2     		uxtb	r1, r1
 2397              	.LVL289:
 595:Core/Src/NOS_Strip_UART.c ****     for(int i = effectDividers[2]; i < effectDividers[3]; i++)
ARM GAS  C:\Users\igorn\AppData\Local\Temp\cchFVsBM.s 			page 57


 2398              		.loc 1 595 60 is_stmt 1 discriminator 3 view .LVU820
 2399 0080 0133     		adds	r3, r3, #1
 2400              	.LVL290:
 2401              	.L142:
 595:Core/Src/NOS_Strip_UART.c ****     for(int i = effectDividers[2]; i < effectDividers[3]; i++)
 2402              		.loc 1 595 38 discriminator 1 view .LVU821
 595:Core/Src/NOS_Strip_UART.c ****     for(int i = effectDividers[2]; i < effectDividers[3]; i++)
 2403              		.loc 1 595 54 is_stmt 0 discriminator 1 view .LVU822
 2404 0082 0F9A     		ldr	r2, [sp, #60]
 595:Core/Src/NOS_Strip_UART.c ****     for(int i = effectDividers[2]; i < effectDividers[3]; i++)
 2405              		.loc 1 595 38 discriminator 1 view .LVU823
 2406 0084 9A42     		cmp	r2, r3
 2407 0086 F3DC     		bgt	.L143
 2408              	.LBE45:
 599:Core/Src/NOS_Strip_UART.c ****     }
 600:Core/Src/NOS_Strip_UART.c **** 
 601:Core/Src/NOS_Strip_UART.c ****     subIndex = 0;
 2409              		.loc 1 601 14 view .LVU824
 2410 0088 0021     		movs	r1, #0
 2411              	.LVL291:
 2412              		.loc 1 601 14 view .LVU825
 2413 008a 08E0     		b	.L144
 2414              	.LVL292:
 2415              	.L145:
 2416              	.LBB46:
 602:Core/Src/NOS_Strip_UART.c ****     for(int i = effectDividers[3]; i < effectDividers[4]; i++)
 603:Core/Src/NOS_Strip_UART.c ****     {
 604:Core/Src/NOS_Strip_UART.c ****         walkingString[subIndex] = message[i];
 2417              		.loc 1 604 9 is_stmt 1 discriminator 3 view .LVU826
 2418              		.loc 1 604 42 is_stmt 0 discriminator 3 view .LVU827
 2419 008c A85C     		ldrb	r0, [r5, r2]	@ zero_extendqisi2
 2420              		.loc 1 604 33 discriminator 3 view .LVU828
 2421 008e 01F58873 		add	r3, r1, #272
 2422 0092 6B44     		add	r3, sp, r3
 2423 0094 03F8A00C 		strb	r0, [r3, #-160]
 605:Core/Src/NOS_Strip_UART.c ****         subIndex++;
 2424              		.loc 1 605 9 is_stmt 1 discriminator 3 view .LVU829
 2425              		.loc 1 605 17 is_stmt 0 discriminator 3 view .LVU830
 2426 0098 0131     		adds	r1, r1, #1
 2427              	.LVL293:
 2428              		.loc 1 605 17 discriminator 3 view .LVU831
 2429 009a C9B2     		uxtb	r1, r1
 2430              	.LVL294:
 602:Core/Src/NOS_Strip_UART.c ****     for(int i = effectDividers[3]; i < effectDividers[4]; i++)
 2431              		.loc 1 602 60 is_stmt 1 discriminator 3 view .LVU832
 2432 009c 0132     		adds	r2, r2, #1
 2433              	.LVL295:
 2434              	.L144:
 602:Core/Src/NOS_Strip_UART.c ****     for(int i = effectDividers[3]; i < effectDividers[4]; i++)
 2435              		.loc 1 602 38 discriminator 1 view .LVU833
 602:Core/Src/NOS_Strip_UART.c ****     for(int i = effectDividers[3]; i < effectDividers[4]; i++)
 2436              		.loc 1 602 54 is_stmt 0 discriminator 1 view .LVU834
 2437 009e 109B     		ldr	r3, [sp, #64]
 602:Core/Src/NOS_Strip_UART.c ****     for(int i = effectDividers[3]; i < effectDividers[4]; i++)
 2438              		.loc 1 602 38 discriminator 1 view .LVU835
 2439 00a0 9342     		cmp	r3, r2
 2440 00a2 F3DC     		bgt	.L145
ARM GAS  C:\Users\igorn\AppData\Local\Temp\cchFVsBM.s 			page 58


 2441              	.LBE46:
 606:Core/Src/NOS_Strip_UART.c ****     }
 607:Core/Src/NOS_Strip_UART.c **** 
 608:Core/Src/NOS_Strip_UART.c ****     subIndex = 0;
 2442              		.loc 1 608 14 view .LVU836
 2443 00a4 0022     		movs	r2, #0
 2444              	.LVL296:
 2445              		.loc 1 608 14 view .LVU837
 2446 00a6 08E0     		b	.L146
 2447              	.LVL297:
 2448              	.L147:
 2449              	.LBB47:
 609:Core/Src/NOS_Strip_UART.c ****     for(int i = effectDividers[4]; i < effectDividers[5]; i++)
 610:Core/Src/NOS_Strip_UART.c ****     {
 611:Core/Src/NOS_Strip_UART.c ****         steadyString[subIndex] = message[i];
 2450              		.loc 1 611 9 is_stmt 1 discriminator 3 view .LVU838
 2451              		.loc 1 611 41 is_stmt 0 discriminator 3 view .LVU839
 2452 00a8 E85C     		ldrb	r0, [r5, r3]	@ zero_extendqisi2
 2453              		.loc 1 611 32 discriminator 3 view .LVU840
 2454 00aa 02F58871 		add	r1, r2, #272
 2455 00ae 6944     		add	r1, sp, r1
 2456 00b0 01F8C00C 		strb	r0, [r1, #-192]
 612:Core/Src/NOS_Strip_UART.c ****         subIndex++;
 2457              		.loc 1 612 9 is_stmt 1 discriminator 3 view .LVU841
 2458              		.loc 1 612 17 is_stmt 0 discriminator 3 view .LVU842
 2459 00b4 0132     		adds	r2, r2, #1
 2460              	.LVL298:
 2461              		.loc 1 612 17 discriminator 3 view .LVU843
 2462 00b6 D2B2     		uxtb	r2, r2
 2463              	.LVL299:
 609:Core/Src/NOS_Strip_UART.c ****     for(int i = effectDividers[4]; i < effectDividers[5]; i++)
 2464              		.loc 1 609 60 is_stmt 1 discriminator 3 view .LVU844
 2465 00b8 0133     		adds	r3, r3, #1
 2466              	.LVL300:
 2467              	.L146:
 609:Core/Src/NOS_Strip_UART.c ****     for(int i = effectDividers[4]; i < effectDividers[5]; i++)
 2468              		.loc 1 609 38 discriminator 1 view .LVU845
 609:Core/Src/NOS_Strip_UART.c ****     for(int i = effectDividers[4]; i < effectDividers[5]; i++)
 2469              		.loc 1 609 54 is_stmt 0 discriminator 1 view .LVU846
 2470 00ba 1199     		ldr	r1, [sp, #68]
 609:Core/Src/NOS_Strip_UART.c ****     for(int i = effectDividers[4]; i < effectDividers[5]; i++)
 2471              		.loc 1 609 38 discriminator 1 view .LVU847
 2472 00bc 9942     		cmp	r1, r3
 2473 00be F3DC     		bgt	.L147
 2474              	.LBE47:
 613:Core/Src/NOS_Strip_UART.c ****     }
 614:Core/Src/NOS_Strip_UART.c **** 
 615:Core/Src/NOS_Strip_UART.c **** 
 616:Core/Src/NOS_Strip_UART.c **** 
 617:Core/Src/NOS_Strip_UART.c **** }
 2475              		.loc 1 617 1 view .LVU848
 2476 00c0 45B0     		add	sp, sp, #276
 2477              		.cfi_def_cfa_offset 12
 2478              		@ sp needed
 2479 00c2 30BD     		pop	{r4, r5, pc}
 2480              		.loc 1 617 1 view .LVU849
 2481              		.cfi_endproc
ARM GAS  C:\Users\igorn\AppData\Local\Temp\cchFVsBM.s 			page 59


 2482              	.LFE140:
 2484              		.section	.text.NOS_Strip_UART_ParseStringCommand,"ax",%progbits
 2485              		.align	1
 2486              		.global	NOS_Strip_UART_ParseStringCommand
 2487              		.syntax unified
 2488              		.thumb
 2489              		.thumb_func
 2491              	NOS_Strip_UART_ParseStringCommand:
 2492              	.LVL301:
 2493              	.LFB141:
 618:Core/Src/NOS_Strip_UART.c **** 
 619:Core/Src/NOS_Strip_UART.c **** 
 620:Core/Src/NOS_Strip_UART.c **** bool NOS_Strip_UART_ParseStringCommand(WS2812B_Strip* strip, const char* message, int lenght)
 621:Core/Src/NOS_Strip_UART.c **** {
 2494              		.loc 1 621 1 is_stmt 1 view -0
 2495              		.cfi_startproc
 2496              		@ args = 0, pretend = 0, frame = 64
 2497              		@ frame_needed = 0, uses_anonymous_args = 0
 2498              		.loc 1 621 1 is_stmt 0 view .LVU851
 2499 0000 2DE9F04F 		push	{r4, r5, r6, r7, r8, r9, r10, fp, lr}
 2500              		.cfi_def_cfa_offset 36
 2501              		.cfi_offset 4, -36
 2502              		.cfi_offset 5, -32
 2503              		.cfi_offset 6, -28
 2504              		.cfi_offset 7, -24
 2505              		.cfi_offset 8, -20
 2506              		.cfi_offset 9, -16
 2507              		.cfi_offset 10, -12
 2508              		.cfi_offset 11, -8
 2509              		.cfi_offset 14, -4
 2510 0004 99B0     		sub	sp, sp, #100
 2511              		.cfi_def_cfa_offset 136
 2512 0006 0746     		mov	r7, r0
 2513 0008 0D46     		mov	r5, r1
 2514 000a 1646     		mov	r6, r2
 622:Core/Src/NOS_Strip_UART.c ****     char effectDivider = '&';
 2515              		.loc 1 622 5 is_stmt 1 view .LVU852
 2516              	.LVL302:
 623:Core/Src/NOS_Strip_UART.c ****     char paramDivider = '/';
 2517              		.loc 1 623 5 view .LVU853
 624:Core/Src/NOS_Strip_UART.c **** 
 625:Core/Src/NOS_Strip_UART.c ****     uint16_t index = 0;
 2518              		.loc 1 625 5 view .LVU854
 626:Core/Src/NOS_Strip_UART.c ****     uint16_t subIndex = 0;
 2519              		.loc 1 626 5 view .LVU855
 627:Core/Src/NOS_Strip_UART.c **** 
 628:Core/Src/NOS_Strip_UART.c ****     uint16_t min,max,speed;
 2520              		.loc 1 628 5 view .LVU856
 629:Core/Src/NOS_Strip_UART.c ****     PixelColor tempColor = {0,0,0};
 2521              		.loc 1 629 5 view .LVU857
 2522              		.loc 1 629 16 is_stmt 0 view .LVU858
 2523 000c 0024     		movs	r4, #0
 2524 000e 8DF85C40 		strb	r4, [sp, #92]
 2525 0012 8DF85D40 		strb	r4, [sp, #93]
 2526 0016 8DF85E40 		strb	r4, [sp, #94]
 630:Core/Src/NOS_Strip_UART.c **** 
 631:Core/Src/NOS_Strip_UART.c ****     Effect_Struct tempEffect = {0};
ARM GAS  C:\Users\igorn\AppData\Local\Temp\cchFVsBM.s 			page 60


 2527              		.loc 1 631 5 is_stmt 1 view .LVU859
 2528              		.loc 1 631 19 is_stmt 0 view .LVU860
 2529 001a 2C22     		movs	r2, #44
 2530              	.LVL303:
 2531              		.loc 1 631 19 view .LVU861
 2532 001c 2146     		mov	r1, r4
 2533              	.LVL304:
 2534              		.loc 1 631 19 view .LVU862
 2535 001e 0CA8     		add	r0, sp, #48
 2536              	.LVL305:
 2537              		.loc 1 631 19 view .LVU863
 2538 0020 FFF7FEFF 		bl	memset
 2539              	.LVL306:
 632:Core/Src/NOS_Strip_UART.c **** 
 633:Core/Src/NOS_Strip_UART.c ****     char temp[16];
 2540              		.loc 1 633 5 is_stmt 1 view .LVU864
 634:Core/Src/NOS_Strip_UART.c **** 
 635:Core/Src/NOS_Strip_UART.c ****     while(index < lenght)
 2541              		.loc 1 635 5 view .LVU865
 2542              		.loc 1 635 10 is_stmt 0 view .LVU866
 2543 0024 7DE2     		b	.L151
 2544              	.LVL307:
 2545              	.L210:
 636:Core/Src/NOS_Strip_UART.c ****     {
 637:Core/Src/NOS_Strip_UART.c ****         if(message[index] == effectDivider)
 638:Core/Src/NOS_Strip_UART.c ****         {
 639:Core/Src/NOS_Strip_UART.c ****             index++;
 640:Core/Src/NOS_Strip_UART.c **** 
 641:Core/Src/NOS_Strip_UART.c ****             if(paramDivider == message[index])
 642:Core/Src/NOS_Strip_UART.c ****             {
 643:Core/Src/NOS_Strip_UART.c ****                 index++;
 2546              		.loc 1 643 17 is_stmt 1 view .LVU867
 2547              		.loc 1 643 22 is_stmt 0 view .LVU868
 2548 0026 0234     		adds	r4, r4, #2
 2549 0028 A4B2     		uxth	r4, r4
 2550              	.LVL308:
 644:Core/Src/NOS_Strip_UART.c **** 
 645:Core/Src/NOS_Strip_UART.c ****                 if(message[index] == 'B')
 2551              		.loc 1 645 17 is_stmt 1 view .LVU869
 2552              		.loc 1 645 27 is_stmt 0 view .LVU870
 2553 002a 2B5D     		ldrb	r3, [r5, r4]	@ zero_extendqisi2
 2554              		.loc 1 645 19 view .LVU871
 2555 002c 422B     		cmp	r3, #66
 2556 002e 7DD1     		bne	.L164
 2557 0030 01E0     		b	.L153
 2558              	.L155:
 2559              	.LBB48:
 646:Core/Src/NOS_Strip_UART.c ****                 {
 647:Core/Src/NOS_Strip_UART.c ****                     while(message[index] != paramDivider)
 648:Core/Src/NOS_Strip_UART.c ****                     {
 649:Core/Src/NOS_Strip_UART.c ****                         index++;
 2560              		.loc 1 649 25 is_stmt 1 view .LVU872
 2561              		.loc 1 649 30 is_stmt 0 view .LVU873
 2562 0032 0134     		adds	r4, r4, #1
 2563              	.LVL309:
 2564              		.loc 1 649 30 view .LVU874
 2565 0034 A4B2     		uxth	r4, r4
ARM GAS  C:\Users\igorn\AppData\Local\Temp\cchFVsBM.s 			page 61


 2566              	.LVL310:
 2567              	.L153:
 647:Core/Src/NOS_Strip_UART.c ****                     {
 2568              		.loc 1 647 42 is_stmt 1 view .LVU875
 647:Core/Src/NOS_Strip_UART.c ****                     {
 2569              		.loc 1 647 34 is_stmt 0 view .LVU876
 2570 0036 2B5D     		ldrb	r3, [r5, r4]	@ zero_extendqisi2
 647:Core/Src/NOS_Strip_UART.c ****                     {
 2571              		.loc 1 647 42 view .LVU877
 2572 0038 2F2B     		cmp	r3, #47
 2573 003a FAD1     		bne	.L155
 650:Core/Src/NOS_Strip_UART.c ****                     }
 651:Core/Src/NOS_Strip_UART.c **** 
 652:Core/Src/NOS_Strip_UART.c ****                     index++;
 2574              		.loc 1 652 21 is_stmt 1 view .LVU878
 2575              		.loc 1 652 26 is_stmt 0 view .LVU879
 2576 003c 0134     		adds	r4, r4, #1
 2577              	.LVL311:
 2578              		.loc 1 652 26 view .LVU880
 2579 003e A4B2     		uxth	r4, r4
 2580              	.LVL312:
 653:Core/Src/NOS_Strip_UART.c ****                     
 654:Core/Src/NOS_Strip_UART.c ****                     subIndex = 0;
 2581              		.loc 1 654 21 is_stmt 1 view .LVU881
 655:Core/Src/NOS_Strip_UART.c ****                     while(message[index] != paramDivider)
 2582              		.loc 1 655 21 view .LVU882
 654:Core/Src/NOS_Strip_UART.c ****                     while(message[index] != paramDivider)
 2583              		.loc 1 654 30 is_stmt 0 view .LVU883
 2584 0040 0021     		movs	r1, #0
 2585              		.loc 1 655 26 view .LVU884
 2586 0042 08E0     		b	.L156
 2587              	.LVL313:
 2588              	.L157:
 656:Core/Src/NOS_Strip_UART.c ****                     {
 657:Core/Src/NOS_Strip_UART.c ****                         temp[subIndex] = message[index];
 2589              		.loc 1 657 25 is_stmt 1 view .LVU885
 2590              		.loc 1 657 40 is_stmt 0 view .LVU886
 2591 0044 01F16002 		add	r2, r1, #96
 2592 0048 6A44     		add	r2, sp, r2
 2593 004a 02F8403C 		strb	r3, [r2, #-64]
 658:Core/Src/NOS_Strip_UART.c ****                         subIndex++;
 2594              		.loc 1 658 25 is_stmt 1 view .LVU887
 2595              		.loc 1 658 33 is_stmt 0 view .LVU888
 2596 004e 0131     		adds	r1, r1, #1
 2597              	.LVL314:
 2598              		.loc 1 658 33 view .LVU889
 2599 0050 89B2     		uxth	r1, r1
 2600              	.LVL315:
 659:Core/Src/NOS_Strip_UART.c ****                         index++;
 2601              		.loc 1 659 25 is_stmt 1 view .LVU890
 2602              		.loc 1 659 30 is_stmt 0 view .LVU891
 2603 0052 0134     		adds	r4, r4, #1
 2604              	.LVL316:
 2605              		.loc 1 659 30 view .LVU892
 2606 0054 A4B2     		uxth	r4, r4
 2607              	.LVL317:
 2608              	.L156:
ARM GAS  C:\Users\igorn\AppData\Local\Temp\cchFVsBM.s 			page 62


 655:Core/Src/NOS_Strip_UART.c ****                     {
 2609              		.loc 1 655 42 is_stmt 1 view .LVU893
 655:Core/Src/NOS_Strip_UART.c ****                     {
 2610              		.loc 1 655 34 is_stmt 0 view .LVU894
 2611 0056 2B5D     		ldrb	r3, [r5, r4]	@ zero_extendqisi2
 655:Core/Src/NOS_Strip_UART.c ****                     {
 2612              		.loc 1 655 42 view .LVU895
 2613 0058 2F2B     		cmp	r3, #47
 2614 005a F3D1     		bne	.L157
 660:Core/Src/NOS_Strip_UART.c ****                     }
 661:Core/Src/NOS_Strip_UART.c **** 
 662:Core/Src/NOS_Strip_UART.c ****                     min = getU16ParamFromString(temp,subIndex);
 2615              		.loc 1 662 21 is_stmt 1 view .LVU896
 2616              		.loc 1 662 27 is_stmt 0 view .LVU897
 2617 005c 08A8     		add	r0, sp, #32
 2618 005e FFF7FEFF 		bl	getU16ParamFromString
 2619              	.LVL318:
 2620              		.loc 1 662 27 view .LVU898
 2621 0062 8046     		mov	r8, r0
 2622              	.LVL319:
 663:Core/Src/NOS_Strip_UART.c **** 
 664:Core/Src/NOS_Strip_UART.c ****                     index++;
 2623              		.loc 1 664 21 is_stmt 1 view .LVU899
 2624              		.loc 1 664 26 is_stmt 0 view .LVU900
 2625 0064 0134     		adds	r4, r4, #1
 2626              	.LVL320:
 2627              		.loc 1 664 26 view .LVU901
 2628 0066 A4B2     		uxth	r4, r4
 2629              	.LVL321:
 665:Core/Src/NOS_Strip_UART.c ****                     subIndex = 0;
 2630              		.loc 1 665 21 is_stmt 1 view .LVU902
 666:Core/Src/NOS_Strip_UART.c ****                     while(message[index] != paramDivider)
 2631              		.loc 1 666 21 view .LVU903
 665:Core/Src/NOS_Strip_UART.c ****                     subIndex = 0;
 2632              		.loc 1 665 30 is_stmt 0 view .LVU904
 2633 0068 0021     		movs	r1, #0
 2634              		.loc 1 666 26 view .LVU905
 2635 006a 08E0     		b	.L158
 2636              	.LVL322:
 2637              	.L159:
 667:Core/Src/NOS_Strip_UART.c ****                     {
 668:Core/Src/NOS_Strip_UART.c ****                         temp[subIndex] = message[index];
 2638              		.loc 1 668 25 is_stmt 1 view .LVU906
 2639              		.loc 1 668 40 is_stmt 0 view .LVU907
 2640 006c 01F16002 		add	r2, r1, #96
 2641 0070 6A44     		add	r2, sp, r2
 2642 0072 02F8403C 		strb	r3, [r2, #-64]
 669:Core/Src/NOS_Strip_UART.c ****                         subIndex++;
 2643              		.loc 1 669 25 is_stmt 1 view .LVU908
 2644              		.loc 1 669 33 is_stmt 0 view .LVU909
 2645 0076 0131     		adds	r1, r1, #1
 2646              	.LVL323:
 2647              		.loc 1 669 33 view .LVU910
 2648 0078 89B2     		uxth	r1, r1
 2649              	.LVL324:
 670:Core/Src/NOS_Strip_UART.c ****                         index++;
 2650              		.loc 1 670 25 is_stmt 1 view .LVU911
ARM GAS  C:\Users\igorn\AppData\Local\Temp\cchFVsBM.s 			page 63


 2651              		.loc 1 670 30 is_stmt 0 view .LVU912
 2652 007a 0134     		adds	r4, r4, #1
 2653              	.LVL325:
 2654              		.loc 1 670 30 view .LVU913
 2655 007c A4B2     		uxth	r4, r4
 2656              	.LVL326:
 2657              	.L158:
 666:Core/Src/NOS_Strip_UART.c ****                     {
 2658              		.loc 1 666 42 is_stmt 1 view .LVU914
 666:Core/Src/NOS_Strip_UART.c ****                     {
 2659              		.loc 1 666 34 is_stmt 0 view .LVU915
 2660 007e 2B5D     		ldrb	r3, [r5, r4]	@ zero_extendqisi2
 666:Core/Src/NOS_Strip_UART.c ****                     {
 2661              		.loc 1 666 42 view .LVU916
 2662 0080 2F2B     		cmp	r3, #47
 2663 0082 F3D1     		bne	.L159
 671:Core/Src/NOS_Strip_UART.c ****                     }
 672:Core/Src/NOS_Strip_UART.c **** 
 673:Core/Src/NOS_Strip_UART.c ****                     max = getU16ParamFromString(temp,subIndex); 
 2664              		.loc 1 673 21 is_stmt 1 view .LVU917
 2665              		.loc 1 673 27 is_stmt 0 view .LVU918
 2666 0084 08A8     		add	r0, sp, #32
 2667 0086 FFF7FEFF 		bl	getU16ParamFromString
 2668              	.LVL327:
 2669              		.loc 1 673 27 view .LVU919
 2670 008a 8146     		mov	r9, r0
 2671              	.LVL328:
 674:Core/Src/NOS_Strip_UART.c **** 
 675:Core/Src/NOS_Strip_UART.c ****                     index++;
 2672              		.loc 1 675 21 is_stmt 1 view .LVU920
 2673              		.loc 1 675 26 is_stmt 0 view .LVU921
 2674 008c 0134     		adds	r4, r4, #1
 2675              	.LVL329:
 2676              		.loc 1 675 26 view .LVU922
 2677 008e A4B2     		uxth	r4, r4
 2678              	.LVL330:
 676:Core/Src/NOS_Strip_UART.c ****                     subIndex = 0;
 2679              		.loc 1 676 21 is_stmt 1 view .LVU923
 677:Core/Src/NOS_Strip_UART.c ****                     while(message[index] != paramDivider)
 2680              		.loc 1 677 21 view .LVU924
 676:Core/Src/NOS_Strip_UART.c ****                     subIndex = 0;
 2681              		.loc 1 676 30 is_stmt 0 view .LVU925
 2682 0090 0021     		movs	r1, #0
 2683              		.loc 1 677 26 view .LVU926
 2684 0092 08E0     		b	.L160
 2685              	.LVL331:
 2686              	.L161:
 678:Core/Src/NOS_Strip_UART.c ****                     {
 679:Core/Src/NOS_Strip_UART.c ****                         temp[subIndex] = message[index];
 2687              		.loc 1 679 25 is_stmt 1 view .LVU927
 2688              		.loc 1 679 40 is_stmt 0 view .LVU928
 2689 0094 01F16002 		add	r2, r1, #96
 2690 0098 6A44     		add	r2, sp, r2
 2691 009a 02F8403C 		strb	r3, [r2, #-64]
 680:Core/Src/NOS_Strip_UART.c ****                         subIndex++;
 2692              		.loc 1 680 25 is_stmt 1 view .LVU929
 2693              		.loc 1 680 33 is_stmt 0 view .LVU930
ARM GAS  C:\Users\igorn\AppData\Local\Temp\cchFVsBM.s 			page 64


 2694 009e 0131     		adds	r1, r1, #1
 2695              	.LVL332:
 2696              		.loc 1 680 33 view .LVU931
 2697 00a0 89B2     		uxth	r1, r1
 2698              	.LVL333:
 681:Core/Src/NOS_Strip_UART.c ****                         index++;
 2699              		.loc 1 681 25 is_stmt 1 view .LVU932
 2700              		.loc 1 681 30 is_stmt 0 view .LVU933
 2701 00a2 0134     		adds	r4, r4, #1
 2702              	.LVL334:
 2703              		.loc 1 681 30 view .LVU934
 2704 00a4 A4B2     		uxth	r4, r4
 2705              	.LVL335:
 2706              	.L160:
 677:Core/Src/NOS_Strip_UART.c ****                     {
 2707              		.loc 1 677 42 is_stmt 1 view .LVU935
 677:Core/Src/NOS_Strip_UART.c ****                     {
 2708              		.loc 1 677 34 is_stmt 0 view .LVU936
 2709 00a6 2B5D     		ldrb	r3, [r5, r4]	@ zero_extendqisi2
 677:Core/Src/NOS_Strip_UART.c ****                     {
 2710              		.loc 1 677 42 view .LVU937
 2711 00a8 2F2B     		cmp	r3, #47
 2712 00aa F3D1     		bne	.L161
 682:Core/Src/NOS_Strip_UART.c ****                     }
 683:Core/Src/NOS_Strip_UART.c **** 
 684:Core/Src/NOS_Strip_UART.c ****                     speed = getU16ParamFromString(temp,subIndex);
 2713              		.loc 1 684 21 is_stmt 1 view .LVU938
 2714              		.loc 1 684 29 is_stmt 0 view .LVU939
 2715 00ac 08A8     		add	r0, sp, #32
 2716 00ae FFF7FEFF 		bl	getU16ParamFromString
 2717              	.LVL336:
 2718              		.loc 1 684 29 view .LVU940
 2719 00b2 8246     		mov	r10, r0
 2720              	.LVL337:
 685:Core/Src/NOS_Strip_UART.c **** 
 686:Core/Src/NOS_Strip_UART.c ****                     index++;
 2721              		.loc 1 686 21 is_stmt 1 view .LVU941
 2722              		.loc 1 686 26 is_stmt 0 view .LVU942
 2723 00b4 0134     		adds	r4, r4, #1
 2724              	.LVL338:
 2725              		.loc 1 686 26 view .LVU943
 2726 00b6 A4B2     		uxth	r4, r4
 2727              	.LVL339:
 687:Core/Src/NOS_Strip_UART.c ****                     subIndex = 0;
 2728              		.loc 1 687 21 is_stmt 1 view .LVU944
 688:Core/Src/NOS_Strip_UART.c **** 
 689:Core/Src/NOS_Strip_UART.c ****                     while(message[index] != paramDivider)
 2729              		.loc 1 689 21 view .LVU945
 687:Core/Src/NOS_Strip_UART.c ****                     subIndex = 0;
 2730              		.loc 1 687 30 is_stmt 0 view .LVU946
 2731 00b8 0023     		movs	r3, #0
 2732              		.loc 1 689 26 view .LVU947
 2733 00ba 08E0     		b	.L162
 2734              	.LVL340:
 2735              	.L163:
 690:Core/Src/NOS_Strip_UART.c ****                     {
 691:Core/Src/NOS_Strip_UART.c ****                         temp[subIndex] = message[index];
ARM GAS  C:\Users\igorn\AppData\Local\Temp\cchFVsBM.s 			page 65


 2736              		.loc 1 691 25 is_stmt 1 view .LVU948
 2737              		.loc 1 691 40 is_stmt 0 view .LVU949
 2738 00bc 03F16001 		add	r1, r3, #96
 2739 00c0 6944     		add	r1, sp, r1
 2740 00c2 01F8402C 		strb	r2, [r1, #-64]
 692:Core/Src/NOS_Strip_UART.c ****                         subIndex++;
 2741              		.loc 1 692 25 is_stmt 1 view .LVU950
 2742              		.loc 1 692 33 is_stmt 0 view .LVU951
 2743 00c6 0133     		adds	r3, r3, #1
 2744              	.LVL341:
 2745              		.loc 1 692 33 view .LVU952
 2746 00c8 9BB2     		uxth	r3, r3
 2747              	.LVL342:
 693:Core/Src/NOS_Strip_UART.c ****                         index++;
 2748              		.loc 1 693 25 is_stmt 1 view .LVU953
 2749              		.loc 1 693 30 is_stmt 0 view .LVU954
 2750 00ca 0134     		adds	r4, r4, #1
 2751              	.LVL343:
 2752              		.loc 1 693 30 view .LVU955
 2753 00cc A4B2     		uxth	r4, r4
 2754              	.LVL344:
 2755              	.L162:
 689:Core/Src/NOS_Strip_UART.c ****                     {
 2756              		.loc 1 689 42 is_stmt 1 view .LVU956
 689:Core/Src/NOS_Strip_UART.c ****                     {
 2757              		.loc 1 689 34 is_stmt 0 view .LVU957
 2758 00ce 2A5D     		ldrb	r2, [r5, r4]	@ zero_extendqisi2
 689:Core/Src/NOS_Strip_UART.c ****                     {
 2759              		.loc 1 689 42 view .LVU958
 2760 00d0 2F2A     		cmp	r2, #47
 2761 00d2 F3D1     		bne	.L163
 694:Core/Src/NOS_Strip_UART.c ****                     }
 695:Core/Src/NOS_Strip_UART.c **** 
 696:Core/Src/NOS_Strip_UART.c ****                     bool enabled = false;
 2762              		.loc 1 696 21 is_stmt 1 view .LVU959
 2763              	.LVL345:
 697:Core/Src/NOS_Strip_UART.c **** 
 698:Core/Src/NOS_Strip_UART.c ****                     if(isEqualStrings(temp,"true",0,4))
 2764              		.loc 1 698 21 view .LVU960
 2765              		.loc 1 698 24 is_stmt 0 view .LVU961
 2766 00d4 0423     		movs	r3, #4
 2767              	.LVL346:
 2768              		.loc 1 698 24 view .LVU962
 2769 00d6 0022     		movs	r2, #0
 2770 00d8 B149     		ldr	r1, .L211
 2771 00da 08A8     		add	r0, sp, #32
 2772 00dc FFF7FEFF 		bl	isEqualStrings
 2773              	.LVL347:
 699:Core/Src/NOS_Strip_UART.c ****                     {
 700:Core/Src/NOS_Strip_UART.c ****                         enabled = true;
 701:Core/Src/NOS_Strip_UART.c ****                     }
 702:Core/Src/NOS_Strip_UART.c ****                     else if(isEqualStrings(temp,"false",0,5))
 703:Core/Src/NOS_Strip_UART.c ****                     {
 704:Core/Src/NOS_Strip_UART.c ****                         enabled = false;
 705:Core/Src/NOS_Strip_UART.c ****                     }
 706:Core/Src/NOS_Strip_UART.c **** 
 707:Core/Src/NOS_Strip_UART.c ****                     NOS_WS2812B_Strip_Effect_Init(&tempEffect,NULL,speed,1,min,max,0,0,0,0,EFFECT_B
ARM GAS  C:\Users\igorn\AppData\Local\Temp\cchFVsBM.s 			page 66


 2774              		.loc 1 707 21 is_stmt 1 view .LVU963
 2775 00e0 0DF1300B 		add	fp, sp, #48
 2776 00e4 0790     		str	r0, [sp, #28]
 2777 00e6 2023     		movs	r3, #32
 2778 00e8 0693     		str	r3, [sp, #24]
 2779 00ea 0021     		movs	r1, #0
 2780 00ec 0591     		str	r1, [sp, #20]
 2781 00ee 0491     		str	r1, [sp, #16]
 2782 00f0 0391     		str	r1, [sp, #12]
 2783 00f2 0291     		str	r1, [sp, #8]
 2784 00f4 CDF80490 		str	r9, [sp, #4]
 2785 00f8 CDF80080 		str	r8, [sp]
 2786 00fc 0123     		movs	r3, #1
 2787 00fe 5246     		mov	r2, r10
 2788 0100 5846     		mov	r0, fp
 2789              	.LVL348:
 2790              		.loc 1 707 21 is_stmt 0 view .LVU964
 2791 0102 FFF7FEFF 		bl	NOS_WS2812B_Strip_Effect_Init
 2792              	.LVL349:
 708:Core/Src/NOS_Strip_UART.c ****                     NOS_WS2812B_Strip_Effects_UpdateEffect(strip,tempEffect);
 2793              		.loc 1 708 21 is_stmt 1 view .LVU965
 2794 0106 EC46     		mov	ip, sp
 2795 0108 0DF13C0E 		add	lr, sp, #60
 2796 010c BEE80F00 		ldmia	lr!, {r0, r1, r2, r3}
 2797 0110 ACE80F00 		stmia	ip!, {r0, r1, r2, r3}
 2798 0114 9EE80F00 		ldm	lr, {r0, r1, r2, r3}
 2799 0118 8CE80F00 		stm	ip, {r0, r1, r2, r3}
 2800 011c 9BE80E00 		ldm	fp, {r1, r2, r3}
 2801 0120 3846     		mov	r0, r7
 2802 0122 FFF7FEFF 		bl	NOS_WS2812B_Strip_Effects_UpdateEffect
 2803              	.LVL350:
 2804 0126 01E0     		b	.L164
 2805              	.LVL351:
 2806              	.L165:
 2807              		.loc 1 708 21 is_stmt 0 view .LVU966
 2808              	.LBE48:
 709:Core/Src/NOS_Strip_UART.c ****                 }
 710:Core/Src/NOS_Strip_UART.c **** 
 711:Core/Src/NOS_Strip_UART.c ****                 while(message[index] != 'R')
 712:Core/Src/NOS_Strip_UART.c ****                 {
 713:Core/Src/NOS_Strip_UART.c ****                     index++;
 2809              		.loc 1 713 21 is_stmt 1 view .LVU967
 2810              		.loc 1 713 26 is_stmt 0 view .LVU968
 2811 0128 0134     		adds	r4, r4, #1
 2812              	.LVL352:
 2813              		.loc 1 713 26 view .LVU969
 2814 012a A4B2     		uxth	r4, r4
 2815              	.LVL353:
 2816              	.L164:
 711:Core/Src/NOS_Strip_UART.c ****                 {
 2817              		.loc 1 711 38 is_stmt 1 view .LVU970
 711:Core/Src/NOS_Strip_UART.c ****                 {
 2818              		.loc 1 711 30 is_stmt 0 view .LVU971
 2819 012c 2B5D     		ldrb	r3, [r5, r4]	@ zero_extendqisi2
 711:Core/Src/NOS_Strip_UART.c ****                 {
 2820              		.loc 1 711 38 view .LVU972
 2821 012e 522B     		cmp	r3, #82
ARM GAS  C:\Users\igorn\AppData\Local\Temp\cchFVsBM.s 			page 67


 2822 0130 FAD1     		bne	.L165
 711:Core/Src/NOS_Strip_UART.c ****                 {
 2823              		.loc 1 711 38 view .LVU973
 2824 0132 01E0     		b	.L166
 2825              	.L167:
 2826              	.LBB49:
 714:Core/Src/NOS_Strip_UART.c ****                 }
 715:Core/Src/NOS_Strip_UART.c **** 
 716:Core/Src/NOS_Strip_UART.c ****                 if(message[index] == 'R')
 717:Core/Src/NOS_Strip_UART.c ****                 {
 718:Core/Src/NOS_Strip_UART.c ****                     while(message[index] != paramDivider)
 719:Core/Src/NOS_Strip_UART.c ****                     {
 720:Core/Src/NOS_Strip_UART.c ****                         index++;
 2827              		.loc 1 720 25 is_stmt 1 view .LVU974
 2828              		.loc 1 720 30 is_stmt 0 view .LVU975
 2829 0134 0134     		adds	r4, r4, #1
 2830              	.LVL354:
 2831              		.loc 1 720 30 view .LVU976
 2832 0136 A4B2     		uxth	r4, r4
 2833              	.LVL355:
 2834              	.L166:
 718:Core/Src/NOS_Strip_UART.c ****                     {
 2835              		.loc 1 718 42 is_stmt 1 view .LVU977
 718:Core/Src/NOS_Strip_UART.c ****                     {
 2836              		.loc 1 718 34 is_stmt 0 view .LVU978
 2837 0138 2B5D     		ldrb	r3, [r5, r4]	@ zero_extendqisi2
 718:Core/Src/NOS_Strip_UART.c ****                     {
 2838              		.loc 1 718 42 view .LVU979
 2839 013a 2F2B     		cmp	r3, #47
 2840 013c FAD1     		bne	.L167
 721:Core/Src/NOS_Strip_UART.c ****                     }
 722:Core/Src/NOS_Strip_UART.c **** 
 723:Core/Src/NOS_Strip_UART.c ****                     index++;
 2841              		.loc 1 723 21 is_stmt 1 view .LVU980
 2842              	.LVL356:
 724:Core/Src/NOS_Strip_UART.c ****                     index++;
 2843              		.loc 1 724 21 view .LVU981
 2844              		.loc 1 724 26 is_stmt 0 view .LVU982
 2845 013e 0234     		adds	r4, r4, #2
 2846              	.LVL357:
 2847              		.loc 1 724 26 view .LVU983
 2848 0140 A4B2     		uxth	r4, r4
 2849              	.LVL358:
 725:Core/Src/NOS_Strip_UART.c ****                     
 726:Core/Src/NOS_Strip_UART.c ****                     subIndex = 0;
 2850              		.loc 1 726 21 is_stmt 1 view .LVU984
 727:Core/Src/NOS_Strip_UART.c ****                     while(message[index] != paramDivider)
 2851              		.loc 1 727 21 view .LVU985
 726:Core/Src/NOS_Strip_UART.c ****                     while(message[index] != paramDivider)
 2852              		.loc 1 726 30 is_stmt 0 view .LVU986
 2853 0142 0021     		movs	r1, #0
 2854              		.loc 1 727 26 view .LVU987
 2855 0144 08E0     		b	.L168
 2856              	.LVL359:
 2857              	.L169:
 728:Core/Src/NOS_Strip_UART.c ****                     {
 729:Core/Src/NOS_Strip_UART.c ****                         temp[subIndex] = message[index];
ARM GAS  C:\Users\igorn\AppData\Local\Temp\cchFVsBM.s 			page 68


 2858              		.loc 1 729 25 is_stmt 1 view .LVU988
 2859              		.loc 1 729 40 is_stmt 0 view .LVU989
 2860 0146 01F16002 		add	r2, r1, #96
 2861 014a 6A44     		add	r2, sp, r2
 2862 014c 02F8403C 		strb	r3, [r2, #-64]
 730:Core/Src/NOS_Strip_UART.c ****                         subIndex++;
 2863              		.loc 1 730 25 is_stmt 1 view .LVU990
 2864              		.loc 1 730 33 is_stmt 0 view .LVU991
 2865 0150 0131     		adds	r1, r1, #1
 2866              	.LVL360:
 2867              		.loc 1 730 33 view .LVU992
 2868 0152 89B2     		uxth	r1, r1
 2869              	.LVL361:
 731:Core/Src/NOS_Strip_UART.c ****                         index++;
 2870              		.loc 1 731 25 is_stmt 1 view .LVU993
 2871              		.loc 1 731 30 is_stmt 0 view .LVU994
 2872 0154 0134     		adds	r4, r4, #1
 2873              	.LVL362:
 2874              		.loc 1 731 30 view .LVU995
 2875 0156 A4B2     		uxth	r4, r4
 2876              	.LVL363:
 2877              	.L168:
 727:Core/Src/NOS_Strip_UART.c ****                     {
 2878              		.loc 1 727 42 is_stmt 1 view .LVU996
 727:Core/Src/NOS_Strip_UART.c ****                     {
 2879              		.loc 1 727 34 is_stmt 0 view .LVU997
 2880 0158 2B5D     		ldrb	r3, [r5, r4]	@ zero_extendqisi2
 727:Core/Src/NOS_Strip_UART.c ****                     {
 2881              		.loc 1 727 42 view .LVU998
 2882 015a 2F2B     		cmp	r3, #47
 2883 015c F3D1     		bne	.L169
 732:Core/Src/NOS_Strip_UART.c ****                     }
 733:Core/Src/NOS_Strip_UART.c **** 
 734:Core/Src/NOS_Strip_UART.c ****                     tempColor = getPixelColorFromString(temp,subIndex);
 2884              		.loc 1 734 21 is_stmt 1 view .LVU999
 2885              		.loc 1 734 33 is_stmt 0 view .LVU1000
 2886 015e 08A8     		add	r0, sp, #32
 2887 0160 FFF7FEFF 		bl	getPixelColorFromString
 2888              	.LVL364:
 2889              		.loc 1 734 33 view .LVU1001
 2890 0164 8DF85C00 		strb	r0, [sp, #92]
 2891 0168 C0F30723 		ubfx	r3, r0, #8, #8
 2892 016c 8DF85D30 		strb	r3, [sp, #93]
 2893 0170 C0F30740 		ubfx	r0, r0, #16, #8
 2894 0174 8DF85E00 		strb	r0, [sp, #94]
 735:Core/Src/NOS_Strip_UART.c **** 
 736:Core/Src/NOS_Strip_UART.c ****                     min = getRainbowStageFromColor(tempColor);
 2895              		.loc 1 736 21 is_stmt 1 view .LVU1002
 2896              		.loc 1 736 27 is_stmt 0 view .LVU1003
 2897 0178 1798     		ldr	r0, [sp, #92]
 2898 017a FFF7FEFF 		bl	getRainbowStageFromColor
 2899              	.LVL365:
 2900 017e 8046     		mov	r8, r0
 2901              	.LVL366:
 737:Core/Src/NOS_Strip_UART.c **** 
 738:Core/Src/NOS_Strip_UART.c ****                     index++;
 2902              		.loc 1 738 21 is_stmt 1 view .LVU1004
ARM GAS  C:\Users\igorn\AppData\Local\Temp\cchFVsBM.s 			page 69


 739:Core/Src/NOS_Strip_UART.c ****                     index++;
 2903              		.loc 1 739 21 view .LVU1005
 2904              		.loc 1 739 26 is_stmt 0 view .LVU1006
 2905 0180 0234     		adds	r4, r4, #2
 2906              	.LVL367:
 2907              		.loc 1 739 26 view .LVU1007
 2908 0182 A4B2     		uxth	r4, r4
 2909              	.LVL368:
 740:Core/Src/NOS_Strip_UART.c ****                     subIndex = 0;
 2910              		.loc 1 740 21 is_stmt 1 view .LVU1008
 741:Core/Src/NOS_Strip_UART.c **** 
 742:Core/Src/NOS_Strip_UART.c ****                     while(message[index] != paramDivider)
 2911              		.loc 1 742 21 view .LVU1009
 740:Core/Src/NOS_Strip_UART.c ****                     subIndex = 0;
 2912              		.loc 1 740 30 is_stmt 0 view .LVU1010
 2913 0184 0021     		movs	r1, #0
 2914              		.loc 1 742 26 view .LVU1011
 2915 0186 08E0     		b	.L170
 2916              	.LVL369:
 2917              	.L171:
 743:Core/Src/NOS_Strip_UART.c ****                     {
 744:Core/Src/NOS_Strip_UART.c ****                         temp[subIndex] = message[index];
 2918              		.loc 1 744 25 is_stmt 1 view .LVU1012
 2919              		.loc 1 744 40 is_stmt 0 view .LVU1013
 2920 0188 01F16002 		add	r2, r1, #96
 2921 018c 6A44     		add	r2, sp, r2
 2922 018e 02F8403C 		strb	r3, [r2, #-64]
 745:Core/Src/NOS_Strip_UART.c ****                         subIndex++;
 2923              		.loc 1 745 25 is_stmt 1 view .LVU1014
 2924              		.loc 1 745 33 is_stmt 0 view .LVU1015
 2925 0192 0131     		adds	r1, r1, #1
 2926              	.LVL370:
 2927              		.loc 1 745 33 view .LVU1016
 2928 0194 89B2     		uxth	r1, r1
 2929              	.LVL371:
 746:Core/Src/NOS_Strip_UART.c ****                         index++;
 2930              		.loc 1 746 25 is_stmt 1 view .LVU1017
 2931              		.loc 1 746 30 is_stmt 0 view .LVU1018
 2932 0196 0134     		adds	r4, r4, #1
 2933              	.LVL372:
 2934              		.loc 1 746 30 view .LVU1019
 2935 0198 A4B2     		uxth	r4, r4
 2936              	.LVL373:
 2937              	.L170:
 742:Core/Src/NOS_Strip_UART.c ****                     {
 2938              		.loc 1 742 42 is_stmt 1 view .LVU1020
 742:Core/Src/NOS_Strip_UART.c ****                     {
 2939              		.loc 1 742 34 is_stmt 0 view .LVU1021
 2940 019a 2B5D     		ldrb	r3, [r5, r4]	@ zero_extendqisi2
 742:Core/Src/NOS_Strip_UART.c ****                     {
 2941              		.loc 1 742 42 view .LVU1022
 2942 019c 2F2B     		cmp	r3, #47
 2943 019e F3D1     		bne	.L171
 747:Core/Src/NOS_Strip_UART.c ****                     }
 748:Core/Src/NOS_Strip_UART.c **** 
 749:Core/Src/NOS_Strip_UART.c ****                     tempColor = getPixelColorFromString(temp,subIndex);
 2944              		.loc 1 749 21 is_stmt 1 view .LVU1023
ARM GAS  C:\Users\igorn\AppData\Local\Temp\cchFVsBM.s 			page 70


 2945              		.loc 1 749 33 is_stmt 0 view .LVU1024
 2946 01a0 08A8     		add	r0, sp, #32
 2947 01a2 FFF7FEFF 		bl	getPixelColorFromString
 2948              	.LVL374:
 2949              		.loc 1 749 33 view .LVU1025
 2950 01a6 8DF85C00 		strb	r0, [sp, #92]
 2951 01aa C0F30723 		ubfx	r3, r0, #8, #8
 2952 01ae 8DF85D30 		strb	r3, [sp, #93]
 2953 01b2 C0F30740 		ubfx	r0, r0, #16, #8
 2954 01b6 8DF85E00 		strb	r0, [sp, #94]
 750:Core/Src/NOS_Strip_UART.c **** 
 751:Core/Src/NOS_Strip_UART.c ****                     max = getRainbowStageFromColor(tempColor);
 2955              		.loc 1 751 21 is_stmt 1 view .LVU1026
 2956              		.loc 1 751 27 is_stmt 0 view .LVU1027
 2957 01ba 1798     		ldr	r0, [sp, #92]
 2958 01bc FFF7FEFF 		bl	getRainbowStageFromColor
 2959              	.LVL375:
 2960 01c0 8146     		mov	r9, r0
 2961              	.LVL376:
 752:Core/Src/NOS_Strip_UART.c **** 
 753:Core/Src/NOS_Strip_UART.c ****                     index++;
 2962              		.loc 1 753 21 is_stmt 1 view .LVU1028
 2963              		.loc 1 753 26 is_stmt 0 view .LVU1029
 2964 01c2 0134     		adds	r4, r4, #1
 2965              	.LVL377:
 2966              		.loc 1 753 26 view .LVU1030
 2967 01c4 A4B2     		uxth	r4, r4
 2968              	.LVL378:
 754:Core/Src/NOS_Strip_UART.c ****                     subIndex = 0;
 2969              		.loc 1 754 21 is_stmt 1 view .LVU1031
 755:Core/Src/NOS_Strip_UART.c ****                     while(message[index] != paramDivider)
 2970              		.loc 1 755 21 view .LVU1032
 754:Core/Src/NOS_Strip_UART.c ****                     subIndex = 0;
 2971              		.loc 1 754 30 is_stmt 0 view .LVU1033
 2972 01c6 0021     		movs	r1, #0
 2973              		.loc 1 755 26 view .LVU1034
 2974 01c8 08E0     		b	.L172
 2975              	.LVL379:
 2976              	.L173:
 756:Core/Src/NOS_Strip_UART.c ****                     {
 757:Core/Src/NOS_Strip_UART.c ****                         temp[subIndex] = message[index];
 2977              		.loc 1 757 25 is_stmt 1 view .LVU1035
 2978              		.loc 1 757 40 is_stmt 0 view .LVU1036
 2979 01ca 01F16002 		add	r2, r1, #96
 2980 01ce 6A44     		add	r2, sp, r2
 2981 01d0 02F8403C 		strb	r3, [r2, #-64]
 758:Core/Src/NOS_Strip_UART.c ****                         subIndex++;
 2982              		.loc 1 758 25 is_stmt 1 view .LVU1037
 2983              		.loc 1 758 33 is_stmt 0 view .LVU1038
 2984 01d4 0131     		adds	r1, r1, #1
 2985              	.LVL380:
 2986              		.loc 1 758 33 view .LVU1039
 2987 01d6 89B2     		uxth	r1, r1
 2988              	.LVL381:
 759:Core/Src/NOS_Strip_UART.c ****                         index++;
 2989              		.loc 1 759 25 is_stmt 1 view .LVU1040
 2990              		.loc 1 759 30 is_stmt 0 view .LVU1041
ARM GAS  C:\Users\igorn\AppData\Local\Temp\cchFVsBM.s 			page 71


 2991 01d8 0134     		adds	r4, r4, #1
 2992              	.LVL382:
 2993              		.loc 1 759 30 view .LVU1042
 2994 01da A4B2     		uxth	r4, r4
 2995              	.LVL383:
 2996              	.L172:
 755:Core/Src/NOS_Strip_UART.c ****                     {
 2997              		.loc 1 755 42 is_stmt 1 view .LVU1043
 755:Core/Src/NOS_Strip_UART.c ****                     {
 2998              		.loc 1 755 34 is_stmt 0 view .LVU1044
 2999 01dc 2B5D     		ldrb	r3, [r5, r4]	@ zero_extendqisi2
 755:Core/Src/NOS_Strip_UART.c ****                     {
 3000              		.loc 1 755 42 view .LVU1045
 3001 01de 2F2B     		cmp	r3, #47
 3002 01e0 F3D1     		bne	.L173
 760:Core/Src/NOS_Strip_UART.c ****                     }
 761:Core/Src/NOS_Strip_UART.c **** 
 762:Core/Src/NOS_Strip_UART.c ****                     speed = getU16ParamFromString(temp,subIndex);
 3003              		.loc 1 762 21 is_stmt 1 view .LVU1046
 3004              		.loc 1 762 29 is_stmt 0 view .LVU1047
 3005 01e2 08A8     		add	r0, sp, #32
 3006 01e4 FFF7FEFF 		bl	getU16ParamFromString
 3007              	.LVL384:
 3008              		.loc 1 762 29 view .LVU1048
 3009 01e8 8246     		mov	r10, r0
 3010              	.LVL385:
 763:Core/Src/NOS_Strip_UART.c **** 
 764:Core/Src/NOS_Strip_UART.c ****                     index++;
 3011              		.loc 1 764 21 is_stmt 1 view .LVU1049
 3012              		.loc 1 764 26 is_stmt 0 view .LVU1050
 3013 01ea 0134     		adds	r4, r4, #1
 3014              	.LVL386:
 3015              		.loc 1 764 26 view .LVU1051
 3016 01ec A4B2     		uxth	r4, r4
 3017              	.LVL387:
 765:Core/Src/NOS_Strip_UART.c ****                     subIndex = 0;
 3018              		.loc 1 765 21 is_stmt 1 view .LVU1052
 766:Core/Src/NOS_Strip_UART.c **** 
 767:Core/Src/NOS_Strip_UART.c ****                     while(message[index] != paramDivider)
 3019              		.loc 1 767 21 view .LVU1053
 765:Core/Src/NOS_Strip_UART.c ****                     subIndex = 0;
 3020              		.loc 1 765 30 is_stmt 0 view .LVU1054
 3021 01ee 0023     		movs	r3, #0
 3022              		.loc 1 767 26 view .LVU1055
 3023 01f0 08E0     		b	.L174
 3024              	.LVL388:
 3025              	.L175:
 768:Core/Src/NOS_Strip_UART.c ****                     {
 769:Core/Src/NOS_Strip_UART.c ****                         temp[subIndex] = message[index];
 3026              		.loc 1 769 25 is_stmt 1 view .LVU1056
 3027              		.loc 1 769 40 is_stmt 0 view .LVU1057
 3028 01f2 03F16001 		add	r1, r3, #96
 3029 01f6 6944     		add	r1, sp, r1
 3030 01f8 01F8402C 		strb	r2, [r1, #-64]
 770:Core/Src/NOS_Strip_UART.c ****                         subIndex++;
 3031              		.loc 1 770 25 is_stmt 1 view .LVU1058
 3032              		.loc 1 770 33 is_stmt 0 view .LVU1059
ARM GAS  C:\Users\igorn\AppData\Local\Temp\cchFVsBM.s 			page 72


 3033 01fc 0133     		adds	r3, r3, #1
 3034              	.LVL389:
 3035              		.loc 1 770 33 view .LVU1060
 3036 01fe 9BB2     		uxth	r3, r3
 3037              	.LVL390:
 771:Core/Src/NOS_Strip_UART.c ****                         index++;
 3038              		.loc 1 771 25 is_stmt 1 view .LVU1061
 3039              		.loc 1 771 30 is_stmt 0 view .LVU1062
 3040 0200 0134     		adds	r4, r4, #1
 3041              	.LVL391:
 3042              		.loc 1 771 30 view .LVU1063
 3043 0202 A4B2     		uxth	r4, r4
 3044              	.LVL392:
 3045              	.L174:
 767:Core/Src/NOS_Strip_UART.c ****                     {
 3046              		.loc 1 767 42 is_stmt 1 view .LVU1064
 767:Core/Src/NOS_Strip_UART.c ****                     {
 3047              		.loc 1 767 34 is_stmt 0 view .LVU1065
 3048 0204 2A5D     		ldrb	r2, [r5, r4]	@ zero_extendqisi2
 767:Core/Src/NOS_Strip_UART.c ****                     {
 3049              		.loc 1 767 42 view .LVU1066
 3050 0206 2F2A     		cmp	r2, #47
 3051 0208 F3D1     		bne	.L175
 772:Core/Src/NOS_Strip_UART.c ****                     }
 773:Core/Src/NOS_Strip_UART.c **** 
 774:Core/Src/NOS_Strip_UART.c ****                     bool enabled = false;
 3052              		.loc 1 774 21 is_stmt 1 view .LVU1067
 3053              	.LVL393:
 775:Core/Src/NOS_Strip_UART.c **** 
 776:Core/Src/NOS_Strip_UART.c ****                     if(isEqualStrings(temp,"true",0,4))
 3054              		.loc 1 776 21 view .LVU1068
 3055              		.loc 1 776 24 is_stmt 0 view .LVU1069
 3056 020a 0423     		movs	r3, #4
 3057              	.LVL394:
 3058              		.loc 1 776 24 view .LVU1070
 3059 020c 0022     		movs	r2, #0
 3060 020e 6449     		ldr	r1, .L211
 3061 0210 08A8     		add	r0, sp, #32
 3062              	.LVL395:
 3063              		.loc 1 776 24 view .LVU1071
 3064 0212 FFF7FEFF 		bl	isEqualStrings
 3065              	.LVL396:
 777:Core/Src/NOS_Strip_UART.c ****                     {
 778:Core/Src/NOS_Strip_UART.c ****                         enabled = true;
 779:Core/Src/NOS_Strip_UART.c ****                     }
 780:Core/Src/NOS_Strip_UART.c ****                     else if(isEqualStrings(temp,"false",0,5))
 781:Core/Src/NOS_Strip_UART.c ****                     {
 782:Core/Src/NOS_Strip_UART.c ****                         enabled = false;
 783:Core/Src/NOS_Strip_UART.c ****                     }
 784:Core/Src/NOS_Strip_UART.c **** 
 785:Core/Src/NOS_Strip_UART.c ****                     NOS_WS2812B_Strip_Effect_Init(&tempEffect,NULL,speed,1,min,max,0,0,0,0,EFFECT_R
 3066              		.loc 1 785 21 is_stmt 1 view .LVU1072
 3067 0216 0DF1300B 		add	fp, sp, #48
 3068 021a 0790     		str	r0, [sp, #28]
 3069 021c 2123     		movs	r3, #33
 3070 021e 0693     		str	r3, [sp, #24]
 3071 0220 0021     		movs	r1, #0
ARM GAS  C:\Users\igorn\AppData\Local\Temp\cchFVsBM.s 			page 73


 3072 0222 0591     		str	r1, [sp, #20]
 3073 0224 0491     		str	r1, [sp, #16]
 3074 0226 0391     		str	r1, [sp, #12]
 3075 0228 0291     		str	r1, [sp, #8]
 3076 022a CDF80490 		str	r9, [sp, #4]
 3077 022e CDF80080 		str	r8, [sp]
 3078 0232 0123     		movs	r3, #1
 3079 0234 5246     		mov	r2, r10
 3080 0236 5846     		mov	r0, fp
 3081              	.LVL397:
 3082              		.loc 1 785 21 is_stmt 0 view .LVU1073
 3083 0238 FFF7FEFF 		bl	NOS_WS2812B_Strip_Effect_Init
 3084              	.LVL398:
 786:Core/Src/NOS_Strip_UART.c ****                     NOS_WS2812B_Strip_Effects_UpdateEffect(strip,tempEffect);
 3085              		.loc 1 786 21 is_stmt 1 view .LVU1074
 3086 023c EC46     		mov	ip, sp
 3087 023e 0DF13C0E 		add	lr, sp, #60
 3088 0242 BEE80F00 		ldmia	lr!, {r0, r1, r2, r3}
 3089 0246 ACE80F00 		stmia	ip!, {r0, r1, r2, r3}
 3090 024a 9EE80F00 		ldm	lr, {r0, r1, r2, r3}
 3091 024e 8CE80F00 		stm	ip, {r0, r1, r2, r3}
 3092 0252 9BE80E00 		ldm	fp, {r1, r2, r3}
 3093 0256 3846     		mov	r0, r7
 3094 0258 FFF7FEFF 		bl	NOS_WS2812B_Strip_Effects_UpdateEffect
 3095              	.LVL399:
 3096 025c 01E0     		b	.L176
 3097              	.L177:
 3098              		.loc 1 786 21 is_stmt 0 view .LVU1075
 3099              	.LBE49:
 787:Core/Src/NOS_Strip_UART.c ****                 }
 788:Core/Src/NOS_Strip_UART.c **** 
 789:Core/Src/NOS_Strip_UART.c ****                 while(message[index] != 'D')
 790:Core/Src/NOS_Strip_UART.c ****                 {
 791:Core/Src/NOS_Strip_UART.c ****                     index++;
 3100              		.loc 1 791 21 is_stmt 1 view .LVU1076
 3101              		.loc 1 791 26 is_stmt 0 view .LVU1077
 3102 025e 0134     		adds	r4, r4, #1
 3103              	.LVL400:
 3104              		.loc 1 791 26 view .LVU1078
 3105 0260 A4B2     		uxth	r4, r4
 3106              	.LVL401:
 3107              	.L176:
 789:Core/Src/NOS_Strip_UART.c ****                 {
 3108              		.loc 1 789 38 is_stmt 1 view .LVU1079
 789:Core/Src/NOS_Strip_UART.c ****                 {
 3109              		.loc 1 789 30 is_stmt 0 view .LVU1080
 3110 0262 2B5D     		ldrb	r3, [r5, r4]	@ zero_extendqisi2
 789:Core/Src/NOS_Strip_UART.c ****                 {
 3111              		.loc 1 789 38 view .LVU1081
 3112 0264 442B     		cmp	r3, #68
 3113 0266 FAD1     		bne	.L177
 789:Core/Src/NOS_Strip_UART.c ****                 {
 3114              		.loc 1 789 38 view .LVU1082
 3115 0268 01E0     		b	.L178
 3116              	.L179:
 3117              	.LBB50:
 792:Core/Src/NOS_Strip_UART.c ****                 }
ARM GAS  C:\Users\igorn\AppData\Local\Temp\cchFVsBM.s 			page 74


 793:Core/Src/NOS_Strip_UART.c **** 
 794:Core/Src/NOS_Strip_UART.c ****                 if(message[index] == 'D')
 795:Core/Src/NOS_Strip_UART.c ****                 {
 796:Core/Src/NOS_Strip_UART.c ****                     while(message[index] != paramDivider)
 797:Core/Src/NOS_Strip_UART.c ****                     {
 798:Core/Src/NOS_Strip_UART.c ****                         index++;
 3118              		.loc 1 798 25 is_stmt 1 view .LVU1083
 3119              		.loc 1 798 30 is_stmt 0 view .LVU1084
 3120 026a 0134     		adds	r4, r4, #1
 3121              	.LVL402:
 3122              		.loc 1 798 30 view .LVU1085
 3123 026c A4B2     		uxth	r4, r4
 3124              	.LVL403:
 3125              	.L178:
 796:Core/Src/NOS_Strip_UART.c ****                     {
 3126              		.loc 1 796 42 is_stmt 1 view .LVU1086
 796:Core/Src/NOS_Strip_UART.c ****                     {
 3127              		.loc 1 796 34 is_stmt 0 view .LVU1087
 3128 026e 2B5D     		ldrb	r3, [r5, r4]	@ zero_extendqisi2
 796:Core/Src/NOS_Strip_UART.c ****                     {
 3129              		.loc 1 796 42 view .LVU1088
 3130 0270 2F2B     		cmp	r3, #47
 3131 0272 FAD1     		bne	.L179
 799:Core/Src/NOS_Strip_UART.c ****                     }
 800:Core/Src/NOS_Strip_UART.c **** 
 801:Core/Src/NOS_Strip_UART.c ****                     index++;
 3132              		.loc 1 801 21 is_stmt 1 view .LVU1089
 3133              	.LVL404:
 802:Core/Src/NOS_Strip_UART.c ****                     index++;
 3134              		.loc 1 802 21 view .LVU1090
 3135              		.loc 1 802 26 is_stmt 0 view .LVU1091
 3136 0274 0234     		adds	r4, r4, #2
 3137              	.LVL405:
 3138              		.loc 1 802 26 view .LVU1092
 3139 0276 A4B2     		uxth	r4, r4
 3140              	.LVL406:
 803:Core/Src/NOS_Strip_UART.c ****                     
 804:Core/Src/NOS_Strip_UART.c ****                     subIndex = 0;
 3141              		.loc 1 804 21 is_stmt 1 view .LVU1093
 805:Core/Src/NOS_Strip_UART.c ****                     while(message[index] != paramDivider)
 3142              		.loc 1 805 21 view .LVU1094
 804:Core/Src/NOS_Strip_UART.c ****                     while(message[index] != paramDivider)
 3143              		.loc 1 804 30 is_stmt 0 view .LVU1095
 3144 0278 0021     		movs	r1, #0
 3145              		.loc 1 805 26 view .LVU1096
 3146 027a 08E0     		b	.L180
 3147              	.LVL407:
 3148              	.L181:
 806:Core/Src/NOS_Strip_UART.c ****                     {
 807:Core/Src/NOS_Strip_UART.c ****                         temp[subIndex] = message[index];
 3149              		.loc 1 807 25 is_stmt 1 view .LVU1097
 3150              		.loc 1 807 40 is_stmt 0 view .LVU1098
 3151 027c 01F16002 		add	r2, r1, #96
 3152 0280 6A44     		add	r2, sp, r2
 3153 0282 02F8403C 		strb	r3, [r2, #-64]
 808:Core/Src/NOS_Strip_UART.c ****                         subIndex++;
 3154              		.loc 1 808 25 is_stmt 1 view .LVU1099
ARM GAS  C:\Users\igorn\AppData\Local\Temp\cchFVsBM.s 			page 75


 3155              		.loc 1 808 33 is_stmt 0 view .LVU1100
 3156 0286 0131     		adds	r1, r1, #1
 3157              	.LVL408:
 3158              		.loc 1 808 33 view .LVU1101
 3159 0288 89B2     		uxth	r1, r1
 3160              	.LVL409:
 809:Core/Src/NOS_Strip_UART.c ****                         index++;
 3161              		.loc 1 809 25 is_stmt 1 view .LVU1102
 3162              		.loc 1 809 30 is_stmt 0 view .LVU1103
 3163 028a 0134     		adds	r4, r4, #1
 3164              	.LVL410:
 3165              		.loc 1 809 30 view .LVU1104
 3166 028c A4B2     		uxth	r4, r4
 3167              	.LVL411:
 3168              	.L180:
 805:Core/Src/NOS_Strip_UART.c ****                     {
 3169              		.loc 1 805 42 is_stmt 1 view .LVU1105
 805:Core/Src/NOS_Strip_UART.c ****                     {
 3170              		.loc 1 805 34 is_stmt 0 view .LVU1106
 3171 028e 2B5D     		ldrb	r3, [r5, r4]	@ zero_extendqisi2
 805:Core/Src/NOS_Strip_UART.c ****                     {
 3172              		.loc 1 805 42 view .LVU1107
 3173 0290 2F2B     		cmp	r3, #47
 3174 0292 F3D1     		bne	.L181
 810:Core/Src/NOS_Strip_UART.c ****                     }
 811:Core/Src/NOS_Strip_UART.c **** 
 812:Core/Src/NOS_Strip_UART.c ****                     tempColor = getPixelColorFromString(temp,subIndex);
 3175              		.loc 1 812 21 is_stmt 1 view .LVU1108
 3176              		.loc 1 812 33 is_stmt 0 view .LVU1109
 3177 0294 08A8     		add	r0, sp, #32
 3178 0296 FFF7FEFF 		bl	getPixelColorFromString
 3179              	.LVL412:
 3180              		.loc 1 812 33 view .LVU1110
 3181 029a 8DF85C00 		strb	r0, [sp, #92]
 3182 029e C0F30723 		ubfx	r3, r0, #8, #8
 3183 02a2 8DF85D30 		strb	r3, [sp, #93]
 3184 02a6 C0F30740 		ubfx	r0, r0, #16, #8
 3185 02aa 8DF85E00 		strb	r0, [sp, #94]
 813:Core/Src/NOS_Strip_UART.c **** 
 814:Core/Src/NOS_Strip_UART.c ****                     index++;
 3186              		.loc 1 814 21 is_stmt 1 view .LVU1111
 3187              		.loc 1 814 26 is_stmt 0 view .LVU1112
 3188 02ae 0134     		adds	r4, r4, #1
 3189              	.LVL413:
 3190              		.loc 1 814 26 view .LVU1113
 3191 02b0 A4B2     		uxth	r4, r4
 3192              	.LVL414:
 815:Core/Src/NOS_Strip_UART.c ****                     subIndex = 0;
 3193              		.loc 1 815 21 is_stmt 1 view .LVU1114
 816:Core/Src/NOS_Strip_UART.c ****                     while(message[index] != paramDivider)
 3194              		.loc 1 816 21 view .LVU1115
 815:Core/Src/NOS_Strip_UART.c ****                     subIndex = 0;
 3195              		.loc 1 815 30 is_stmt 0 view .LVU1116
 3196 02b2 0021     		movs	r1, #0
 3197              		.loc 1 816 26 view .LVU1117
 3198 02b4 08E0     		b	.L182
 3199              	.LVL415:
ARM GAS  C:\Users\igorn\AppData\Local\Temp\cchFVsBM.s 			page 76


 3200              	.L183:
 817:Core/Src/NOS_Strip_UART.c ****                     {
 818:Core/Src/NOS_Strip_UART.c ****                         temp[subIndex] = message[index];
 3201              		.loc 1 818 25 is_stmt 1 view .LVU1118
 3202              		.loc 1 818 40 is_stmt 0 view .LVU1119
 3203 02b6 01F16002 		add	r2, r1, #96
 3204 02ba 6A44     		add	r2, sp, r2
 3205 02bc 02F8403C 		strb	r3, [r2, #-64]
 819:Core/Src/NOS_Strip_UART.c ****                         subIndex++;
 3206              		.loc 1 819 25 is_stmt 1 view .LVU1120
 3207              		.loc 1 819 33 is_stmt 0 view .LVU1121
 3208 02c0 0131     		adds	r1, r1, #1
 3209              	.LVL416:
 3210              		.loc 1 819 33 view .LVU1122
 3211 02c2 89B2     		uxth	r1, r1
 3212              	.LVL417:
 820:Core/Src/NOS_Strip_UART.c ****                         index++;
 3213              		.loc 1 820 25 is_stmt 1 view .LVU1123
 3214              		.loc 1 820 30 is_stmt 0 view .LVU1124
 3215 02c4 0134     		adds	r4, r4, #1
 3216              	.LVL418:
 3217              		.loc 1 820 30 view .LVU1125
 3218 02c6 A4B2     		uxth	r4, r4
 3219              	.LVL419:
 3220              	.L182:
 816:Core/Src/NOS_Strip_UART.c ****                     {
 3221              		.loc 1 816 42 is_stmt 1 view .LVU1126
 816:Core/Src/NOS_Strip_UART.c ****                     {
 3222              		.loc 1 816 34 is_stmt 0 view .LVU1127
 3223 02c8 2B5D     		ldrb	r3, [r5, r4]	@ zero_extendqisi2
 816:Core/Src/NOS_Strip_UART.c ****                     {
 3224              		.loc 1 816 42 view .LVU1128
 3225 02ca 2F2B     		cmp	r3, #47
 3226 02cc F3D1     		bne	.L183
 821:Core/Src/NOS_Strip_UART.c ****                     }
 822:Core/Src/NOS_Strip_UART.c **** 
 823:Core/Src/NOS_Strip_UART.c ****                     speed = getU16ParamFromString(temp,subIndex);
 3227              		.loc 1 823 21 is_stmt 1 view .LVU1129
 3228              		.loc 1 823 29 is_stmt 0 view .LVU1130
 3229 02ce 08A8     		add	r0, sp, #32
 3230 02d0 FFF7FEFF 		bl	getU16ParamFromString
 3231              	.LVL420:
 3232              		.loc 1 823 29 view .LVU1131
 3233 02d4 8046     		mov	r8, r0
 3234              	.LVL421:
 824:Core/Src/NOS_Strip_UART.c **** 
 825:Core/Src/NOS_Strip_UART.c ****                     index++;
 3235              		.loc 1 825 21 is_stmt 1 view .LVU1132
 3236              		.loc 1 825 26 is_stmt 0 view .LVU1133
 3237 02d6 0134     		adds	r4, r4, #1
 3238              	.LVL422:
 3239              		.loc 1 825 26 view .LVU1134
 3240 02d8 A4B2     		uxth	r4, r4
 3241              	.LVL423:
 826:Core/Src/NOS_Strip_UART.c ****                     subIndex = 0;
 3242              		.loc 1 826 21 is_stmt 1 view .LVU1135
 827:Core/Src/NOS_Strip_UART.c **** 
ARM GAS  C:\Users\igorn\AppData\Local\Temp\cchFVsBM.s 			page 77


 828:Core/Src/NOS_Strip_UART.c ****                     while(message[index] != paramDivider)
 3243              		.loc 1 828 21 view .LVU1136
 826:Core/Src/NOS_Strip_UART.c ****                     subIndex = 0;
 3244              		.loc 1 826 30 is_stmt 0 view .LVU1137
 3245 02da 0023     		movs	r3, #0
 3246              		.loc 1 828 26 view .LVU1138
 3247 02dc 08E0     		b	.L184
 3248              	.LVL424:
 3249              	.L185:
 829:Core/Src/NOS_Strip_UART.c ****                     {
 830:Core/Src/NOS_Strip_UART.c ****                         temp[subIndex] = message[index];
 3250              		.loc 1 830 25 is_stmt 1 view .LVU1139
 3251              		.loc 1 830 40 is_stmt 0 view .LVU1140
 3252 02de 03F16001 		add	r1, r3, #96
 3253 02e2 6944     		add	r1, sp, r1
 3254 02e4 01F8402C 		strb	r2, [r1, #-64]
 831:Core/Src/NOS_Strip_UART.c ****                         subIndex++;
 3255              		.loc 1 831 25 is_stmt 1 view .LVU1141
 3256              		.loc 1 831 33 is_stmt 0 view .LVU1142
 3257 02e8 0133     		adds	r3, r3, #1
 3258              	.LVL425:
 3259              		.loc 1 831 33 view .LVU1143
 3260 02ea 9BB2     		uxth	r3, r3
 3261              	.LVL426:
 832:Core/Src/NOS_Strip_UART.c ****                         index++;
 3262              		.loc 1 832 25 is_stmt 1 view .LVU1144
 3263              		.loc 1 832 30 is_stmt 0 view .LVU1145
 3264 02ec 0134     		adds	r4, r4, #1
 3265              	.LVL427:
 3266              		.loc 1 832 30 view .LVU1146
 3267 02ee A4B2     		uxth	r4, r4
 3268              	.LVL428:
 3269              	.L184:
 828:Core/Src/NOS_Strip_UART.c ****                     {
 3270              		.loc 1 828 42 is_stmt 1 view .LVU1147
 828:Core/Src/NOS_Strip_UART.c ****                     {
 3271              		.loc 1 828 34 is_stmt 0 view .LVU1148
 3272 02f0 2A5D     		ldrb	r2, [r5, r4]	@ zero_extendqisi2
 828:Core/Src/NOS_Strip_UART.c ****                     {
 3273              		.loc 1 828 42 view .LVU1149
 3274 02f2 2F2A     		cmp	r2, #47
 3275 02f4 F3D1     		bne	.L185
 833:Core/Src/NOS_Strip_UART.c ****                     }
 834:Core/Src/NOS_Strip_UART.c **** 
 835:Core/Src/NOS_Strip_UART.c ****                     bool enabled = false;
 3276              		.loc 1 835 21 is_stmt 1 view .LVU1150
 3277              	.LVL429:
 836:Core/Src/NOS_Strip_UART.c **** 
 837:Core/Src/NOS_Strip_UART.c ****                     if(isEqualStrings(temp,"true",0,4))
 3278              		.loc 1 837 21 view .LVU1151
 3279              		.loc 1 837 24 is_stmt 0 view .LVU1152
 3280 02f6 0423     		movs	r3, #4
 3281              	.LVL430:
 3282              		.loc 1 837 24 view .LVU1153
 3283 02f8 0022     		movs	r2, #0
 3284 02fa 2949     		ldr	r1, .L211
 3285 02fc 08A8     		add	r0, sp, #32
ARM GAS  C:\Users\igorn\AppData\Local\Temp\cchFVsBM.s 			page 78


 3286              	.LVL431:
 3287              		.loc 1 837 24 view .LVU1154
 3288 02fe FFF7FEFF 		bl	isEqualStrings
 3289              	.LVL432:
 838:Core/Src/NOS_Strip_UART.c ****                     {
 839:Core/Src/NOS_Strip_UART.c ****                         enabled = true;
 840:Core/Src/NOS_Strip_UART.c ****                     }
 841:Core/Src/NOS_Strip_UART.c ****                     else if(isEqualStrings(temp,"false",0,5))
 842:Core/Src/NOS_Strip_UART.c ****                     {
 843:Core/Src/NOS_Strip_UART.c ****                         enabled = false;
 844:Core/Src/NOS_Strip_UART.c ****                     }
 845:Core/Src/NOS_Strip_UART.c **** 
 846:Core/Src/NOS_Strip_UART.c ****                     NOS_WS2812B_Strip_Effect_Init(&tempEffect,&tempColor,speed,1,0,0,0,0,0,0,EFFECT
 3290              		.loc 1 846 21 is_stmt 1 view .LVU1155
 3291 0302 0DF13009 		add	r9, sp, #48
 3292              	.LVL433:
 3293              		.loc 1 846 21 is_stmt 0 view .LVU1156
 3294 0306 0790     		str	r0, [sp, #28]
 3295 0308 2223     		movs	r3, #34
 3296 030a 0693     		str	r3, [sp, #24]
 3297 030c 0023     		movs	r3, #0
 3298 030e 0593     		str	r3, [sp, #20]
 3299 0310 0493     		str	r3, [sp, #16]
 3300 0312 0393     		str	r3, [sp, #12]
 3301 0314 0293     		str	r3, [sp, #8]
 3302 0316 0193     		str	r3, [sp, #4]
 3303 0318 0093     		str	r3, [sp]
 3304 031a 0123     		movs	r3, #1
 3305 031c 4246     		mov	r2, r8
 3306 031e 17A9     		add	r1, sp, #92
 3307 0320 4846     		mov	r0, r9
 3308              	.LVL434:
 3309              		.loc 1 846 21 view .LVU1157
 3310 0322 FFF7FEFF 		bl	NOS_WS2812B_Strip_Effect_Init
 3311              	.LVL435:
 847:Core/Src/NOS_Strip_UART.c ****                     NOS_WS2812B_Strip_Effects_UpdateEffect(strip,tempEffect);
 3312              		.loc 1 847 21 is_stmt 1 view .LVU1158
 3313 0326 EC46     		mov	ip, sp
 3314 0328 0DF13C0E 		add	lr, sp, #60
 3315 032c BEE80F00 		ldmia	lr!, {r0, r1, r2, r3}
 3316 0330 ACE80F00 		stmia	ip!, {r0, r1, r2, r3}
 3317 0334 9EE80F00 		ldm	lr, {r0, r1, r2, r3}
 3318 0338 8CE80F00 		stm	ip, {r0, r1, r2, r3}
 3319 033c 99E80E00 		ldm	r9, {r1, r2, r3}
 3320 0340 3846     		mov	r0, r7
 3321 0342 FFF7FEFF 		bl	NOS_WS2812B_Strip_Effects_UpdateEffect
 3322              	.LVL436:
 3323 0346 01E0     		b	.L186
 3324              	.L187:
 3325              		.loc 1 847 21 is_stmt 0 view .LVU1159
 3326              	.LBE50:
 848:Core/Src/NOS_Strip_UART.c ****                 }
 849:Core/Src/NOS_Strip_UART.c **** 
 850:Core/Src/NOS_Strip_UART.c ****                 while(message[index] != 'W')
 851:Core/Src/NOS_Strip_UART.c ****                 {
 852:Core/Src/NOS_Strip_UART.c ****                     index++;
 3327              		.loc 1 852 21 is_stmt 1 view .LVU1160
ARM GAS  C:\Users\igorn\AppData\Local\Temp\cchFVsBM.s 			page 79


 3328              		.loc 1 852 26 is_stmt 0 view .LVU1161
 3329 0348 0134     		adds	r4, r4, #1
 3330              	.LVL437:
 3331              		.loc 1 852 26 view .LVU1162
 3332 034a A4B2     		uxth	r4, r4
 3333              	.LVL438:
 3334              	.L186:
 850:Core/Src/NOS_Strip_UART.c ****                 {
 3335              		.loc 1 850 38 is_stmt 1 view .LVU1163
 850:Core/Src/NOS_Strip_UART.c ****                 {
 3336              		.loc 1 850 30 is_stmt 0 view .LVU1164
 3337 034c 2B5D     		ldrb	r3, [r5, r4]	@ zero_extendqisi2
 850:Core/Src/NOS_Strip_UART.c ****                 {
 3338              		.loc 1 850 38 view .LVU1165
 3339 034e 572B     		cmp	r3, #87
 3340 0350 FAD1     		bne	.L187
 850:Core/Src/NOS_Strip_UART.c ****                 {
 3341              		.loc 1 850 38 view .LVU1166
 3342 0352 01E0     		b	.L188
 3343              	.L189:
 3344              	.LBB51:
 853:Core/Src/NOS_Strip_UART.c ****                 }
 854:Core/Src/NOS_Strip_UART.c **** 
 855:Core/Src/NOS_Strip_UART.c ****                 if(message[index] == 'W')
 856:Core/Src/NOS_Strip_UART.c ****                 {
 857:Core/Src/NOS_Strip_UART.c ****                     while(message[index] != paramDivider)
 858:Core/Src/NOS_Strip_UART.c ****                     {
 859:Core/Src/NOS_Strip_UART.c ****                         index++;
 3345              		.loc 1 859 25 is_stmt 1 view .LVU1167
 3346              		.loc 1 859 30 is_stmt 0 view .LVU1168
 3347 0354 0134     		adds	r4, r4, #1
 3348              	.LVL439:
 3349              		.loc 1 859 30 view .LVU1169
 3350 0356 A4B2     		uxth	r4, r4
 3351              	.LVL440:
 3352              	.L188:
 857:Core/Src/NOS_Strip_UART.c ****                     {
 3353              		.loc 1 857 42 is_stmt 1 view .LVU1170
 857:Core/Src/NOS_Strip_UART.c ****                     {
 3354              		.loc 1 857 34 is_stmt 0 view .LVU1171
 3355 0358 2B5D     		ldrb	r3, [r5, r4]	@ zero_extendqisi2
 857:Core/Src/NOS_Strip_UART.c ****                     {
 3356              		.loc 1 857 42 view .LVU1172
 3357 035a 2F2B     		cmp	r3, #47
 3358 035c FAD1     		bne	.L189
 860:Core/Src/NOS_Strip_UART.c ****                     }
 861:Core/Src/NOS_Strip_UART.c **** 
 862:Core/Src/NOS_Strip_UART.c ****                     index++;
 3359              		.loc 1 862 21 is_stmt 1 view .LVU1173
 3360              	.LVL441:
 863:Core/Src/NOS_Strip_UART.c ****                     index++;
 3361              		.loc 1 863 21 view .LVU1174
 3362              		.loc 1 863 26 is_stmt 0 view .LVU1175
 3363 035e 0234     		adds	r4, r4, #2
 3364              	.LVL442:
 3365              		.loc 1 863 26 view .LVU1176
 3366 0360 A4B2     		uxth	r4, r4
ARM GAS  C:\Users\igorn\AppData\Local\Temp\cchFVsBM.s 			page 80


 3367              	.LVL443:
 864:Core/Src/NOS_Strip_UART.c ****                     
 865:Core/Src/NOS_Strip_UART.c ****                     subIndex = 0;
 3368              		.loc 1 865 21 is_stmt 1 view .LVU1177
 866:Core/Src/NOS_Strip_UART.c ****                     while(message[index] != paramDivider)
 3369              		.loc 1 866 21 view .LVU1178
 865:Core/Src/NOS_Strip_UART.c ****                     while(message[index] != paramDivider)
 3370              		.loc 1 865 30 is_stmt 0 view .LVU1179
 3371 0362 0021     		movs	r1, #0
 3372              		.loc 1 866 26 view .LVU1180
 3373 0364 08E0     		b	.L190
 3374              	.LVL444:
 3375              	.L191:
 867:Core/Src/NOS_Strip_UART.c ****                     {
 868:Core/Src/NOS_Strip_UART.c ****                         temp[subIndex] = message[index];
 3376              		.loc 1 868 25 is_stmt 1 view .LVU1181
 3377              		.loc 1 868 40 is_stmt 0 view .LVU1182
 3378 0366 01F16002 		add	r2, r1, #96
 3379 036a 6A44     		add	r2, sp, r2
 3380 036c 02F8403C 		strb	r3, [r2, #-64]
 869:Core/Src/NOS_Strip_UART.c ****                         subIndex++;
 3381              		.loc 1 869 25 is_stmt 1 view .LVU1183
 3382              		.loc 1 869 33 is_stmt 0 view .LVU1184
 3383 0370 0131     		adds	r1, r1, #1
 3384              	.LVL445:
 3385              		.loc 1 869 33 view .LVU1185
 3386 0372 89B2     		uxth	r1, r1
 3387              	.LVL446:
 870:Core/Src/NOS_Strip_UART.c ****                         index++;
 3388              		.loc 1 870 25 is_stmt 1 view .LVU1186
 3389              		.loc 1 870 30 is_stmt 0 view .LVU1187
 3390 0374 0134     		adds	r4, r4, #1
 3391              	.LVL447:
 3392              		.loc 1 870 30 view .LVU1188
 3393 0376 A4B2     		uxth	r4, r4
 3394              	.LVL448:
 3395              	.L190:
 866:Core/Src/NOS_Strip_UART.c ****                     {
 3396              		.loc 1 866 42 is_stmt 1 view .LVU1189
 866:Core/Src/NOS_Strip_UART.c ****                     {
 3397              		.loc 1 866 34 is_stmt 0 view .LVU1190
 3398 0378 2B5D     		ldrb	r3, [r5, r4]	@ zero_extendqisi2
 866:Core/Src/NOS_Strip_UART.c ****                     {
 3399              		.loc 1 866 42 view .LVU1191
 3400 037a 2F2B     		cmp	r3, #47
 3401 037c F3D1     		bne	.L191
 871:Core/Src/NOS_Strip_UART.c ****                     }
 872:Core/Src/NOS_Strip_UART.c **** 
 873:Core/Src/NOS_Strip_UART.c ****                     tempColor = getPixelColorFromString(temp,subIndex);
 3402              		.loc 1 873 21 is_stmt 1 view .LVU1192
 3403              		.loc 1 873 33 is_stmt 0 view .LVU1193
 3404 037e 08A8     		add	r0, sp, #32
 3405 0380 FFF7FEFF 		bl	getPixelColorFromString
 3406              	.LVL449:
 3407              		.loc 1 873 33 view .LVU1194
 3408 0384 8DF85C00 		strb	r0, [sp, #92]
 3409 0388 C0F30723 		ubfx	r3, r0, #8, #8
ARM GAS  C:\Users\igorn\AppData\Local\Temp\cchFVsBM.s 			page 81


 3410 038c 8DF85D30 		strb	r3, [sp, #93]
 3411 0390 C0F30740 		ubfx	r0, r0, #16, #8
 3412 0394 8DF85E00 		strb	r0, [sp, #94]
 874:Core/Src/NOS_Strip_UART.c **** 
 875:Core/Src/NOS_Strip_UART.c ****                     index++;
 3413              		.loc 1 875 21 is_stmt 1 view .LVU1195
 3414              		.loc 1 875 26 is_stmt 0 view .LVU1196
 3415 0398 0134     		adds	r4, r4, #1
 3416              	.LVL450:
 3417              		.loc 1 875 26 view .LVU1197
 3418 039a A4B2     		uxth	r4, r4
 3419              	.LVL451:
 876:Core/Src/NOS_Strip_UART.c ****                     subIndex = 0;
 3420              		.loc 1 876 21 is_stmt 1 view .LVU1198
 877:Core/Src/NOS_Strip_UART.c ****                     while(message[index] != paramDivider)
 3421              		.loc 1 877 21 view .LVU1199
 876:Core/Src/NOS_Strip_UART.c ****                     subIndex = 0;
 3422              		.loc 1 876 30 is_stmt 0 view .LVU1200
 3423 039c 0021     		movs	r1, #0
 3424              		.loc 1 877 26 view .LVU1201
 3425 039e 0AE0     		b	.L192
 3426              	.L212:
 3427              		.align	2
 3428              	.L211:
 3429 03a0 00000000 		.word	.LC0
 3430              	.LVL452:
 3431              	.L193:
 878:Core/Src/NOS_Strip_UART.c ****                     {
 879:Core/Src/NOS_Strip_UART.c ****                         temp[subIndex] = message[index];
 3432              		.loc 1 879 25 is_stmt 1 view .LVU1202
 3433              		.loc 1 879 40 is_stmt 0 view .LVU1203
 3434 03a4 01F16002 		add	r2, r1, #96
 3435 03a8 6A44     		add	r2, sp, r2
 3436 03aa 02F8403C 		strb	r3, [r2, #-64]
 880:Core/Src/NOS_Strip_UART.c ****                         subIndex++;
 3437              		.loc 1 880 25 is_stmt 1 view .LVU1204
 3438              		.loc 1 880 33 is_stmt 0 view .LVU1205
 3439 03ae 0131     		adds	r1, r1, #1
 3440              	.LVL453:
 3441              		.loc 1 880 33 view .LVU1206
 3442 03b0 89B2     		uxth	r1, r1
 3443              	.LVL454:
 881:Core/Src/NOS_Strip_UART.c ****                         index++;
 3444              		.loc 1 881 25 is_stmt 1 view .LVU1207
 3445              		.loc 1 881 30 is_stmt 0 view .LVU1208
 3446 03b2 0134     		adds	r4, r4, #1
 3447              	.LVL455:
 3448              		.loc 1 881 30 view .LVU1209
 3449 03b4 A4B2     		uxth	r4, r4
 3450              	.LVL456:
 3451              	.L192:
 877:Core/Src/NOS_Strip_UART.c ****                     {
 3452              		.loc 1 877 42 is_stmt 1 view .LVU1210
 877:Core/Src/NOS_Strip_UART.c ****                     {
 3453              		.loc 1 877 34 is_stmt 0 view .LVU1211
 3454 03b6 2B5D     		ldrb	r3, [r5, r4]	@ zero_extendqisi2
 877:Core/Src/NOS_Strip_UART.c ****                     {
ARM GAS  C:\Users\igorn\AppData\Local\Temp\cchFVsBM.s 			page 82


 3455              		.loc 1 877 42 view .LVU1212
 3456 03b8 2F2B     		cmp	r3, #47
 3457 03ba F3D1     		bne	.L193
 882:Core/Src/NOS_Strip_UART.c ****                     }
 883:Core/Src/NOS_Strip_UART.c **** 
 884:Core/Src/NOS_Strip_UART.c ****                     min = getU16ParamFromString(temp,subIndex);
 3458              		.loc 1 884 21 is_stmt 1 view .LVU1213
 3459              		.loc 1 884 27 is_stmt 0 view .LVU1214
 3460 03bc 08A8     		add	r0, sp, #32
 3461 03be FFF7FEFF 		bl	getU16ParamFromString
 3462              	.LVL457:
 3463              		.loc 1 884 27 view .LVU1215
 3464 03c2 8146     		mov	r9, r0
 3465              	.LVL458:
 885:Core/Src/NOS_Strip_UART.c **** 
 886:Core/Src/NOS_Strip_UART.c ****                     index++;
 3466              		.loc 1 886 21 is_stmt 1 view .LVU1216
 3467              		.loc 1 886 26 is_stmt 0 view .LVU1217
 3468 03c4 0134     		adds	r4, r4, #1
 3469              	.LVL459:
 3470              		.loc 1 886 26 view .LVU1218
 3471 03c6 A4B2     		uxth	r4, r4
 3472              	.LVL460:
 887:Core/Src/NOS_Strip_UART.c ****                     subIndex = 0;
 3473              		.loc 1 887 21 is_stmt 1 view .LVU1219
 888:Core/Src/NOS_Strip_UART.c ****                     while(message[index] != paramDivider)
 3474              		.loc 1 888 21 view .LVU1220
 887:Core/Src/NOS_Strip_UART.c ****                     subIndex = 0;
 3475              		.loc 1 887 30 is_stmt 0 view .LVU1221
 3476 03c8 0021     		movs	r1, #0
 3477              		.loc 1 888 26 view .LVU1222
 3478 03ca 08E0     		b	.L194
 3479              	.LVL461:
 3480              	.L195:
 889:Core/Src/NOS_Strip_UART.c ****                     {
 890:Core/Src/NOS_Strip_UART.c ****                         temp[subIndex] = message[index];
 3481              		.loc 1 890 25 is_stmt 1 view .LVU1223
 3482              		.loc 1 890 40 is_stmt 0 view .LVU1224
 3483 03cc 01F16002 		add	r2, r1, #96
 3484 03d0 6A44     		add	r2, sp, r2
 3485 03d2 02F8403C 		strb	r3, [r2, #-64]
 891:Core/Src/NOS_Strip_UART.c ****                         subIndex++;
 3486              		.loc 1 891 25 is_stmt 1 view .LVU1225
 3487              		.loc 1 891 33 is_stmt 0 view .LVU1226
 3488 03d6 0131     		adds	r1, r1, #1
 3489              	.LVL462:
 3490              		.loc 1 891 33 view .LVU1227
 3491 03d8 89B2     		uxth	r1, r1
 3492              	.LVL463:
 892:Core/Src/NOS_Strip_UART.c ****                         index++;
 3493              		.loc 1 892 25 is_stmt 1 view .LVU1228
 3494              		.loc 1 892 30 is_stmt 0 view .LVU1229
 3495 03da 0134     		adds	r4, r4, #1
 3496              	.LVL464:
 3497              		.loc 1 892 30 view .LVU1230
 3498 03dc A4B2     		uxth	r4, r4
 3499              	.LVL465:
ARM GAS  C:\Users\igorn\AppData\Local\Temp\cchFVsBM.s 			page 83


 3500              	.L194:
 888:Core/Src/NOS_Strip_UART.c ****                     {
 3501              		.loc 1 888 42 is_stmt 1 view .LVU1231
 888:Core/Src/NOS_Strip_UART.c ****                     {
 3502              		.loc 1 888 34 is_stmt 0 view .LVU1232
 3503 03de 2B5D     		ldrb	r3, [r5, r4]	@ zero_extendqisi2
 888:Core/Src/NOS_Strip_UART.c ****                     {
 3504              		.loc 1 888 42 view .LVU1233
 3505 03e0 2F2B     		cmp	r3, #47
 3506 03e2 F3D1     		bne	.L195
 893:Core/Src/NOS_Strip_UART.c ****                     }
 894:Core/Src/NOS_Strip_UART.c **** 
 895:Core/Src/NOS_Strip_UART.c ****                     speed = getU16ParamFromString(temp,subIndex);
 3507              		.loc 1 895 21 is_stmt 1 view .LVU1234
 3508              		.loc 1 895 29 is_stmt 0 view .LVU1235
 3509 03e4 08A8     		add	r0, sp, #32
 3510 03e6 FFF7FEFF 		bl	getU16ParamFromString
 3511              	.LVL466:
 3512              		.loc 1 895 29 view .LVU1236
 3513 03ea 8046     		mov	r8, r0
 3514              	.LVL467:
 896:Core/Src/NOS_Strip_UART.c **** 
 897:Core/Src/NOS_Strip_UART.c ****                     index++;
 3515              		.loc 1 897 21 is_stmt 1 view .LVU1237
 3516              		.loc 1 897 26 is_stmt 0 view .LVU1238
 3517 03ec 0134     		adds	r4, r4, #1
 3518              	.LVL468:
 3519              		.loc 1 897 26 view .LVU1239
 3520 03ee A4B2     		uxth	r4, r4
 3521              	.LVL469:
 898:Core/Src/NOS_Strip_UART.c ****                     subIndex = 0;
 3522              		.loc 1 898 21 is_stmt 1 view .LVU1240
 899:Core/Src/NOS_Strip_UART.c **** 
 900:Core/Src/NOS_Strip_UART.c ****                     while(message[index] != paramDivider)
 3523              		.loc 1 900 21 view .LVU1241
 898:Core/Src/NOS_Strip_UART.c ****                     subIndex = 0;
 3524              		.loc 1 898 30 is_stmt 0 view .LVU1242
 3525 03f0 0023     		movs	r3, #0
 3526              		.loc 1 900 26 view .LVU1243
 3527 03f2 08E0     		b	.L196
 3528              	.LVL470:
 3529              	.L197:
 901:Core/Src/NOS_Strip_UART.c ****                     {
 902:Core/Src/NOS_Strip_UART.c ****                         temp[subIndex] = message[index];
 3530              		.loc 1 902 25 is_stmt 1 view .LVU1244
 3531              		.loc 1 902 40 is_stmt 0 view .LVU1245
 3532 03f4 03F16001 		add	r1, r3, #96
 3533 03f8 6944     		add	r1, sp, r1
 3534 03fa 01F8402C 		strb	r2, [r1, #-64]
 903:Core/Src/NOS_Strip_UART.c ****                         subIndex++;
 3535              		.loc 1 903 25 is_stmt 1 view .LVU1246
 3536              		.loc 1 903 33 is_stmt 0 view .LVU1247
 3537 03fe 0133     		adds	r3, r3, #1
 3538              	.LVL471:
 3539              		.loc 1 903 33 view .LVU1248
 3540 0400 9BB2     		uxth	r3, r3
 3541              	.LVL472:
ARM GAS  C:\Users\igorn\AppData\Local\Temp\cchFVsBM.s 			page 84


 904:Core/Src/NOS_Strip_UART.c ****                         index++;
 3542              		.loc 1 904 25 is_stmt 1 view .LVU1249
 3543              		.loc 1 904 30 is_stmt 0 view .LVU1250
 3544 0402 0134     		adds	r4, r4, #1
 3545              	.LVL473:
 3546              		.loc 1 904 30 view .LVU1251
 3547 0404 A4B2     		uxth	r4, r4
 3548              	.LVL474:
 3549              	.L196:
 900:Core/Src/NOS_Strip_UART.c ****                     {
 3550              		.loc 1 900 42 is_stmt 1 view .LVU1252
 900:Core/Src/NOS_Strip_UART.c ****                     {
 3551              		.loc 1 900 34 is_stmt 0 view .LVU1253
 3552 0406 2A5D     		ldrb	r2, [r5, r4]	@ zero_extendqisi2
 900:Core/Src/NOS_Strip_UART.c ****                     {
 3553              		.loc 1 900 42 view .LVU1254
 3554 0408 2F2A     		cmp	r2, #47
 3555 040a F3D1     		bne	.L197
 905:Core/Src/NOS_Strip_UART.c ****                     }
 906:Core/Src/NOS_Strip_UART.c **** 
 907:Core/Src/NOS_Strip_UART.c ****                     bool enabled = false;
 3556              		.loc 1 907 21 is_stmt 1 view .LVU1255
 3557              	.LVL475:
 908:Core/Src/NOS_Strip_UART.c **** 
 909:Core/Src/NOS_Strip_UART.c ****                     if(isEqualStrings(temp,"true",0,4))
 3558              		.loc 1 909 21 view .LVU1256
 3559              		.loc 1 909 24 is_stmt 0 view .LVU1257
 3560 040c 0423     		movs	r3, #4
 3561              	.LVL476:
 3562              		.loc 1 909 24 view .LVU1258
 3563 040e 0022     		movs	r2, #0
 3564 0410 4C49     		ldr	r1, .L213
 3565 0412 08A8     		add	r0, sp, #32
 3566 0414 FFF7FEFF 		bl	isEqualStrings
 3567              	.LVL477:
 910:Core/Src/NOS_Strip_UART.c ****                     {
 911:Core/Src/NOS_Strip_UART.c ****                         enabled = true;
 912:Core/Src/NOS_Strip_UART.c ****                     }
 913:Core/Src/NOS_Strip_UART.c ****                     else if(isEqualStrings(temp,"false",0,5))
 914:Core/Src/NOS_Strip_UART.c ****                     {
 915:Core/Src/NOS_Strip_UART.c ****                         enabled = false;
 916:Core/Src/NOS_Strip_UART.c ****                     }
 917:Core/Src/NOS_Strip_UART.c **** 
 918:Core/Src/NOS_Strip_UART.c ****                     NOS_WS2812B_Strip_Effect_Init(&tempEffect,NULL,speed,1,0,0,min,0,0,0,EFFECT_WAL
 3568              		.loc 1 918 21 is_stmt 1 view .LVU1259
 3569 0418 0DF1300A 		add	r10, sp, #48
 3570 041c 0790     		str	r0, [sp, #28]
 3571 041e 2323     		movs	r3, #35
 3572 0420 0693     		str	r3, [sp, #24]
 3573 0422 0021     		movs	r1, #0
 3574 0424 0591     		str	r1, [sp, #20]
 3575 0426 0491     		str	r1, [sp, #16]
 3576 0428 0391     		str	r1, [sp, #12]
 3577 042a CDF80890 		str	r9, [sp, #8]
 3578 042e 0191     		str	r1, [sp, #4]
 3579 0430 0091     		str	r1, [sp]
 3580 0432 0123     		movs	r3, #1
ARM GAS  C:\Users\igorn\AppData\Local\Temp\cchFVsBM.s 			page 85


 3581 0434 4246     		mov	r2, r8
 3582 0436 5046     		mov	r0, r10
 3583              	.LVL478:
 3584              		.loc 1 918 21 is_stmt 0 view .LVU1260
 3585 0438 FFF7FEFF 		bl	NOS_WS2812B_Strip_Effect_Init
 3586              	.LVL479:
 919:Core/Src/NOS_Strip_UART.c ****                     NOS_WS2812B_Strip_Effects_UpdateEffect(strip,tempEffect);
 3587              		.loc 1 919 21 is_stmt 1 view .LVU1261
 3588 043c EC46     		mov	ip, sp
 3589 043e 0DF13C0E 		add	lr, sp, #60
 3590 0442 BEE80F00 		ldmia	lr!, {r0, r1, r2, r3}
 3591 0446 ACE80F00 		stmia	ip!, {r0, r1, r2, r3}
 3592 044a 9EE80F00 		ldm	lr, {r0, r1, r2, r3}
 3593 044e 8CE80F00 		stm	ip, {r0, r1, r2, r3}
 3594 0452 9AE80E00 		ldm	r10, {r1, r2, r3}
 3595 0456 3846     		mov	r0, r7
 3596 0458 FFF7FEFF 		bl	NOS_WS2812B_Strip_Effects_UpdateEffect
 3597              	.LVL480:
 3598 045c 01E0     		b	.L198
 3599              	.L199:
 3600              		.loc 1 919 21 is_stmt 0 view .LVU1262
 3601              	.LBE51:
 920:Core/Src/NOS_Strip_UART.c ****                 }
 921:Core/Src/NOS_Strip_UART.c **** 
 922:Core/Src/NOS_Strip_UART.c ****                 while(message[index] != 'S')
 923:Core/Src/NOS_Strip_UART.c ****                 {
 924:Core/Src/NOS_Strip_UART.c ****                     index++;
 3602              		.loc 1 924 21 is_stmt 1 view .LVU1263
 3603              		.loc 1 924 26 is_stmt 0 view .LVU1264
 3604 045e 0134     		adds	r4, r4, #1
 3605              	.LVL481:
 3606              		.loc 1 924 26 view .LVU1265
 3607 0460 A4B2     		uxth	r4, r4
 3608              	.LVL482:
 3609              	.L198:
 922:Core/Src/NOS_Strip_UART.c ****                 {
 3610              		.loc 1 922 38 is_stmt 1 view .LVU1266
 922:Core/Src/NOS_Strip_UART.c ****                 {
 3611              		.loc 1 922 30 is_stmt 0 view .LVU1267
 3612 0462 2B5D     		ldrb	r3, [r5, r4]	@ zero_extendqisi2
 922:Core/Src/NOS_Strip_UART.c ****                 {
 3613              		.loc 1 922 38 view .LVU1268
 3614 0464 532B     		cmp	r3, #83
 3615 0466 FAD1     		bne	.L199
 922:Core/Src/NOS_Strip_UART.c ****                 {
 3616              		.loc 1 922 38 view .LVU1269
 3617 0468 01E0     		b	.L200
 3618              	.L201:
 3619              	.LBB52:
 925:Core/Src/NOS_Strip_UART.c ****                 }
 926:Core/Src/NOS_Strip_UART.c **** 
 927:Core/Src/NOS_Strip_UART.c ****                 if(message[index] == 'S')
 928:Core/Src/NOS_Strip_UART.c ****                 {
 929:Core/Src/NOS_Strip_UART.c ****                     while(message[index] != paramDivider)
 930:Core/Src/NOS_Strip_UART.c ****                     {
 931:Core/Src/NOS_Strip_UART.c ****                         index++;
 3620              		.loc 1 931 25 is_stmt 1 view .LVU1270
ARM GAS  C:\Users\igorn\AppData\Local\Temp\cchFVsBM.s 			page 86


 3621              		.loc 1 931 30 is_stmt 0 view .LVU1271
 3622 046a 0134     		adds	r4, r4, #1
 3623              	.LVL483:
 3624              		.loc 1 931 30 view .LVU1272
 3625 046c A4B2     		uxth	r4, r4
 3626              	.LVL484:
 3627              	.L200:
 929:Core/Src/NOS_Strip_UART.c ****                     {
 3628              		.loc 1 929 42 is_stmt 1 view .LVU1273
 929:Core/Src/NOS_Strip_UART.c ****                     {
 3629              		.loc 1 929 34 is_stmt 0 view .LVU1274
 3630 046e 2B5D     		ldrb	r3, [r5, r4]	@ zero_extendqisi2
 929:Core/Src/NOS_Strip_UART.c ****                     {
 3631              		.loc 1 929 42 view .LVU1275
 3632 0470 2F2B     		cmp	r3, #47
 3633 0472 FAD1     		bne	.L201
 932:Core/Src/NOS_Strip_UART.c ****                     }
 933:Core/Src/NOS_Strip_UART.c **** 
 934:Core/Src/NOS_Strip_UART.c ****                     index++;
 3634              		.loc 1 934 21 is_stmt 1 view .LVU1276
 3635              	.LVL485:
 935:Core/Src/NOS_Strip_UART.c ****                     index++;
 3636              		.loc 1 935 21 view .LVU1277
 3637              		.loc 1 935 26 is_stmt 0 view .LVU1278
 3638 0474 0234     		adds	r4, r4, #2
 3639              	.LVL486:
 3640              		.loc 1 935 26 view .LVU1279
 3641 0476 A4B2     		uxth	r4, r4
 3642              	.LVL487:
 936:Core/Src/NOS_Strip_UART.c ****                     
 937:Core/Src/NOS_Strip_UART.c ****                     subIndex = 0;
 3643              		.loc 1 937 21 is_stmt 1 view .LVU1280
 938:Core/Src/NOS_Strip_UART.c ****                     while(message[index] != paramDivider)
 3644              		.loc 1 938 21 view .LVU1281
 937:Core/Src/NOS_Strip_UART.c ****                     while(message[index] != paramDivider)
 3645              		.loc 1 937 30 is_stmt 0 view .LVU1282
 3646 0478 0021     		movs	r1, #0
 3647              		.loc 1 938 26 view .LVU1283
 3648 047a 08E0     		b	.L202
 3649              	.LVL488:
 3650              	.L203:
 939:Core/Src/NOS_Strip_UART.c ****                     {
 940:Core/Src/NOS_Strip_UART.c ****                         temp[subIndex] = message[index];
 3651              		.loc 1 940 25 is_stmt 1 view .LVU1284
 3652              		.loc 1 940 40 is_stmt 0 view .LVU1285
 3653 047c 01F16002 		add	r2, r1, #96
 3654 0480 6A44     		add	r2, sp, r2
 3655 0482 02F8403C 		strb	r3, [r2, #-64]
 941:Core/Src/NOS_Strip_UART.c ****                         subIndex++;
 3656              		.loc 1 941 25 is_stmt 1 view .LVU1286
 3657              		.loc 1 941 33 is_stmt 0 view .LVU1287
 3658 0486 0131     		adds	r1, r1, #1
 3659              	.LVL489:
 3660              		.loc 1 941 33 view .LVU1288
 3661 0488 89B2     		uxth	r1, r1
 3662              	.LVL490:
 942:Core/Src/NOS_Strip_UART.c ****                         index++;
ARM GAS  C:\Users\igorn\AppData\Local\Temp\cchFVsBM.s 			page 87


 3663              		.loc 1 942 25 is_stmt 1 view .LVU1289
 3664              		.loc 1 942 30 is_stmt 0 view .LVU1290
 3665 048a 0134     		adds	r4, r4, #1
 3666              	.LVL491:
 3667              		.loc 1 942 30 view .LVU1291
 3668 048c A4B2     		uxth	r4, r4
 3669              	.LVL492:
 3670              	.L202:
 938:Core/Src/NOS_Strip_UART.c ****                     {
 3671              		.loc 1 938 42 is_stmt 1 view .LVU1292
 938:Core/Src/NOS_Strip_UART.c ****                     {
 3672              		.loc 1 938 34 is_stmt 0 view .LVU1293
 3673 048e 2B5D     		ldrb	r3, [r5, r4]	@ zero_extendqisi2
 938:Core/Src/NOS_Strip_UART.c ****                     {
 3674              		.loc 1 938 42 view .LVU1294
 3675 0490 2F2B     		cmp	r3, #47
 3676 0492 F3D1     		bne	.L203
 943:Core/Src/NOS_Strip_UART.c ****                     }
 944:Core/Src/NOS_Strip_UART.c **** 
 945:Core/Src/NOS_Strip_UART.c ****                     tempColor = getPixelColorFromString(temp,subIndex);
 3677              		.loc 1 945 21 is_stmt 1 view .LVU1295
 3678              		.loc 1 945 33 is_stmt 0 view .LVU1296
 3679 0494 08A8     		add	r0, sp, #32
 3680 0496 FFF7FEFF 		bl	getPixelColorFromString
 3681              	.LVL493:
 3682              		.loc 1 945 33 view .LVU1297
 3683 049a 8DF85C00 		strb	r0, [sp, #92]
 3684 049e C0F30723 		ubfx	r3, r0, #8, #8
 3685 04a2 8DF85D30 		strb	r3, [sp, #93]
 3686 04a6 C0F30740 		ubfx	r0, r0, #16, #8
 3687 04aa 8DF85E00 		strb	r0, [sp, #94]
 946:Core/Src/NOS_Strip_UART.c **** 
 947:Core/Src/NOS_Strip_UART.c ****                     index++;
 3688              		.loc 1 947 21 is_stmt 1 view .LVU1298
 3689              		.loc 1 947 26 is_stmt 0 view .LVU1299
 3690 04ae 0134     		adds	r4, r4, #1
 3691              	.LVL494:
 3692              		.loc 1 947 26 view .LVU1300
 3693 04b0 A4B2     		uxth	r4, r4
 3694              	.LVL495:
 948:Core/Src/NOS_Strip_UART.c ****                     subIndex = 0;
 3695              		.loc 1 948 21 is_stmt 1 view .LVU1301
 949:Core/Src/NOS_Strip_UART.c **** 
 950:Core/Src/NOS_Strip_UART.c ****                     while(message[index] != paramDivider)
 3696              		.loc 1 950 21 view .LVU1302
 948:Core/Src/NOS_Strip_UART.c ****                     subIndex = 0;
 3697              		.loc 1 948 30 is_stmt 0 view .LVU1303
 3698 04b2 0023     		movs	r3, #0
 3699              		.loc 1 950 26 view .LVU1304
 3700 04b4 08E0     		b	.L204
 3701              	.LVL496:
 3702              	.L205:
 951:Core/Src/NOS_Strip_UART.c ****                     {
 952:Core/Src/NOS_Strip_UART.c ****                         temp[subIndex] = message[index];
 3703              		.loc 1 952 25 is_stmt 1 view .LVU1305
 3704              		.loc 1 952 40 is_stmt 0 view .LVU1306
 3705 04b6 03F16001 		add	r1, r3, #96
ARM GAS  C:\Users\igorn\AppData\Local\Temp\cchFVsBM.s 			page 88


 3706 04ba 6944     		add	r1, sp, r1
 3707 04bc 01F8402C 		strb	r2, [r1, #-64]
 953:Core/Src/NOS_Strip_UART.c ****                         subIndex++;
 3708              		.loc 1 953 25 is_stmt 1 view .LVU1307
 3709              		.loc 1 953 33 is_stmt 0 view .LVU1308
 3710 04c0 0133     		adds	r3, r3, #1
 3711              	.LVL497:
 3712              		.loc 1 953 33 view .LVU1309
 3713 04c2 9BB2     		uxth	r3, r3
 3714              	.LVL498:
 954:Core/Src/NOS_Strip_UART.c ****                         index++;
 3715              		.loc 1 954 25 is_stmt 1 view .LVU1310
 3716              		.loc 1 954 30 is_stmt 0 view .LVU1311
 3717 04c4 0134     		adds	r4, r4, #1
 3718              	.LVL499:
 3719              		.loc 1 954 30 view .LVU1312
 3720 04c6 A4B2     		uxth	r4, r4
 3721              	.LVL500:
 3722              	.L204:
 950:Core/Src/NOS_Strip_UART.c ****                     {
 3723              		.loc 1 950 42 is_stmt 1 view .LVU1313
 950:Core/Src/NOS_Strip_UART.c ****                     {
 3724              		.loc 1 950 34 is_stmt 0 view .LVU1314
 3725 04c8 2A5D     		ldrb	r2, [r5, r4]	@ zero_extendqisi2
 950:Core/Src/NOS_Strip_UART.c ****                     {
 3726              		.loc 1 950 42 view .LVU1315
 3727 04ca 2F2A     		cmp	r2, #47
 3728 04cc F3D1     		bne	.L205
 955:Core/Src/NOS_Strip_UART.c ****                     }
 956:Core/Src/NOS_Strip_UART.c **** 
 957:Core/Src/NOS_Strip_UART.c ****                     bool enabled = false;
 3729              		.loc 1 957 21 is_stmt 1 view .LVU1316
 3730              	.LVL501:
 958:Core/Src/NOS_Strip_UART.c **** 
 959:Core/Src/NOS_Strip_UART.c ****                     if(isEqualStrings(temp,"true",0,4))
 3731              		.loc 1 959 21 view .LVU1317
 3732              		.loc 1 959 24 is_stmt 0 view .LVU1318
 3733 04ce 0423     		movs	r3, #4
 3734              	.LVL502:
 3735              		.loc 1 959 24 view .LVU1319
 3736 04d0 0022     		movs	r2, #0
 3737 04d2 1C49     		ldr	r1, .L213
 3738 04d4 08A8     		add	r0, sp, #32
 3739 04d6 FFF7FEFF 		bl	isEqualStrings
 3740              	.LVL503:
 960:Core/Src/NOS_Strip_UART.c ****                     {
 961:Core/Src/NOS_Strip_UART.c ****                         enabled = true;
 962:Core/Src/NOS_Strip_UART.c ****                     }
 963:Core/Src/NOS_Strip_UART.c ****                     else if(isEqualStrings(temp,"false",0,5))
 964:Core/Src/NOS_Strip_UART.c ****                     {
 965:Core/Src/NOS_Strip_UART.c ****                         enabled = false;
 966:Core/Src/NOS_Strip_UART.c ****                     }
 967:Core/Src/NOS_Strip_UART.c **** 
 968:Core/Src/NOS_Strip_UART.c ****                     NOS_WS2812B_Strip_Effect_Init(&tempEffect,&tempColor,speed,1,0,0,0,0,0,0,EFFECT
 3741              		.loc 1 968 21 is_stmt 1 view .LVU1320
 3742 04da 0DF13009 		add	r9, sp, #48
 3743              	.LVL504:
ARM GAS  C:\Users\igorn\AppData\Local\Temp\cchFVsBM.s 			page 89


 3744              		.loc 1 968 21 is_stmt 0 view .LVU1321
 3745 04de 0790     		str	r0, [sp, #28]
 3746 04e0 2423     		movs	r3, #36
 3747 04e2 0693     		str	r3, [sp, #24]
 3748 04e4 0023     		movs	r3, #0
 3749 04e6 0593     		str	r3, [sp, #20]
 3750 04e8 0493     		str	r3, [sp, #16]
 3751 04ea 0393     		str	r3, [sp, #12]
 3752 04ec 0293     		str	r3, [sp, #8]
 3753 04ee 0193     		str	r3, [sp, #4]
 3754 04f0 0093     		str	r3, [sp]
 3755 04f2 0123     		movs	r3, #1
 3756 04f4 4246     		mov	r2, r8
 3757 04f6 17A9     		add	r1, sp, #92
 3758 04f8 4846     		mov	r0, r9
 3759              	.LVL505:
 3760              		.loc 1 968 21 view .LVU1322
 3761 04fa FFF7FEFF 		bl	NOS_WS2812B_Strip_Effect_Init
 3762              	.LVL506:
 969:Core/Src/NOS_Strip_UART.c ****                     NOS_WS2812B_Strip_Effects_UpdateEffect(strip,tempEffect);
 3763              		.loc 1 969 21 is_stmt 1 view .LVU1323
 3764 04fe EC46     		mov	ip, sp
 3765 0500 0DF13C0E 		add	lr, sp, #60
 3766 0504 BEE80F00 		ldmia	lr!, {r0, r1, r2, r3}
 3767 0508 ACE80F00 		stmia	ip!, {r0, r1, r2, r3}
 3768 050c 9EE80F00 		ldm	lr, {r0, r1, r2, r3}
 3769 0510 8CE80F00 		stm	ip, {r0, r1, r2, r3}
 3770 0514 99E80E00 		ldm	r9, {r1, r2, r3}
 3771 0518 3846     		mov	r0, r7
 3772 051a FFF7FEFF 		bl	NOS_WS2812B_Strip_Effects_UpdateEffect
 3773              	.LVL507:
 3774              	.L152:
 3775              		.loc 1 969 21 is_stmt 0 view .LVU1324
 3776              	.LBE52:
 970:Core/Src/NOS_Strip_UART.c ****                 }
 971:Core/Src/NOS_Strip_UART.c **** 
 972:Core/Src/NOS_Strip_UART.c ****                 
 973:Core/Src/NOS_Strip_UART.c ****             }
 974:Core/Src/NOS_Strip_UART.c ****         }
 975:Core/Src/NOS_Strip_UART.c ****         index++;
 3777              		.loc 1 975 9 is_stmt 1 view .LVU1325
 3778              		.loc 1 975 14 is_stmt 0 view .LVU1326
 3779 051e 0134     		adds	r4, r4, #1
 3780              	.LVL508:
 3781              		.loc 1 975 14 view .LVU1327
 3782 0520 A4B2     		uxth	r4, r4
 3783              	.LVL509:
 3784              	.L151:
 635:Core/Src/NOS_Strip_UART.c ****     {
 3785              		.loc 1 635 17 is_stmt 1 view .LVU1328
 3786 0522 B442     		cmp	r4, r6
 3787 0524 0ADA     		bge	.L209
 637:Core/Src/NOS_Strip_UART.c ****         {
 3788              		.loc 1 637 9 view .LVU1329
 637:Core/Src/NOS_Strip_UART.c ****         {
 3789              		.loc 1 637 19 is_stmt 0 view .LVU1330
 3790 0526 2B5D     		ldrb	r3, [r5, r4]	@ zero_extendqisi2
ARM GAS  C:\Users\igorn\AppData\Local\Temp\cchFVsBM.s 			page 90


 637:Core/Src/NOS_Strip_UART.c ****         {
 3791              		.loc 1 637 11 view .LVU1331
 3792 0528 262B     		cmp	r3, #38
 3793 052a F8D1     		bne	.L152
 639:Core/Src/NOS_Strip_UART.c **** 
 3794              		.loc 1 639 13 is_stmt 1 view .LVU1332
 639:Core/Src/NOS_Strip_UART.c **** 
 3795              		.loc 1 639 18 is_stmt 0 view .LVU1333
 3796 052c 631C     		adds	r3, r4, #1
 3797 052e 9BB2     		uxth	r3, r3
 3798              	.LVL510:
 641:Core/Src/NOS_Strip_UART.c ****             {
 3799              		.loc 1 641 13 is_stmt 1 view .LVU1334
 641:Core/Src/NOS_Strip_UART.c ****             {
 3800              		.loc 1 641 39 is_stmt 0 view .LVU1335
 3801 0530 EA5C     		ldrb	r2, [r5, r3]	@ zero_extendqisi2
 641:Core/Src/NOS_Strip_UART.c ****             {
 3802              		.loc 1 641 15 view .LVU1336
 3803 0532 2F2A     		cmp	r2, #47
 3804 0534 3FF477AD 		beq	.L210
 639:Core/Src/NOS_Strip_UART.c **** 
 3805              		.loc 1 639 18 view .LVU1337
 3806 0538 1C46     		mov	r4, r3
 3807 053a F0E7     		b	.L152
 3808              	.LVL511:
 3809              	.L209:
 976:Core/Src/NOS_Strip_UART.c ****     }
 977:Core/Src/NOS_Strip_UART.c **** 
 978:Core/Src/NOS_Strip_UART.c ****     return true;
 3810              		.loc 1 978 5 is_stmt 1 view .LVU1338
 979:Core/Src/NOS_Strip_UART.c **** }...
 3811              		.loc 1 979 1 is_stmt 0 view .LVU1339
 3812 053c 0120     		movs	r0, #1
 3813 053e 19B0     		add	sp, sp, #100
 3814              		.cfi_def_cfa_offset 36
 3815              		@ sp needed
 3816 0540 BDE8F08F 		pop	{r4, r5, r6, r7, r8, r9, r10, fp, pc}
 3817              	.LVL512:
 3818              	.L214:
 3819              		.loc 1 979 1 view .LVU1340
 3820              		.align	2
 3821              	.L213:
 3822 0544 00000000 		.word	.LC0
 3823              		.cfi_endproc
 3824              	.LFE141:
 3826              		.text
 3827              	.Letext0:
 3828              		.file 2 "c:\\users\\igorn\\appdata\\roaming\\code\\user\\globalstorage\\bmd.stm32-for-vscode\\@xpa
 3829              		.file 3 "c:\\users\\igorn\\appdata\\roaming\\code\\user\\globalstorage\\bmd.stm32-for-vscode\\@xpa
 3830              		.file 4 "Core/Inc/NOS_Typedefs.h"
 3831              		.file 5 "Core/Inc/NOS_BaseColors.h"
 3832              		.file 6 "Core/Inc/NOS_WS2812B_Strip.h"
 3833              		.file 7 "Core/Inc/NOS_WS2812B_Strip_Effects.h"
 3834              		.file 8 "<built-in>"
ARM GAS  C:\Users\igorn\AppData\Local\Temp\cchFVsBM.s 			page 91

